

Microchip MPLAB XC8 Assembler V2.32 build 20210201212658 
                                                                                               Thu Sep 09 12:55:36 2021

Microchip MPLAB XC8 C Compiler v2.32 (Free license) build 20210201212658 Og1 
     1                           	processor	16F877A
     2                           	pagewidth 120
     3                           	opt	flic
     4                           	psect	idataBANK1,global,class=CODE,delta=2,noexec
     5                           	psect	cinit,global,class=CODE,merge=1,delta=2
     6                           	psect	bssCOMMON,global,class=COMMON,space=1,delta=1,noexec
     7                           	psect	bssBANK0,global,class=BANK0,space=1,delta=1,noexec
     8                           	psect	dataBANK1,global,class=BANK1,space=1,delta=1,noexec
     9                           	psect	inittext,global,class=CODE,delta=2
    10                           	psect	cstackCOMMON,global,class=COMMON,space=1,delta=1,noexec
    11                           	psect	cstackBANK0,global,class=BANK0,space=1,delta=1,noexec
    12                           	psect	maintext,global,class=CODE,split=1,delta=2
    13                           	psect	text1,local,class=CODE,merge=1,delta=2
    14                           	psect	text2,local,class=CODE,merge=1,delta=2,group=1
    15                           	psect	text3,local,class=CODE,merge=1,delta=2,group=1
    16                           	psect	text4,local,class=CODE,merge=1,delta=2
    17                           	psect	text5,local,class=CODE,merge=1,delta=2,group=1
    18                           	psect	text6,local,class=CODE,merge=1,delta=2,group=1
    19                           	psect	text7,local,class=CODE,merge=1,delta=2,group=1
    20                           	psect	text8,local,class=CODE,merge=1,delta=2,group=1
    21                           	psect	text9,local,class=CODE,merge=1,delta=2,group=1
    22                           	psect	text10,local,class=CODE,merge=1,delta=2
    23                           	psect	intentry,global,class=CODE,delta=2
    24                           	psect	config,global,abs,ovrld,class=CONFIG,space=4,delta=2,noexec
    25                           	dabs	1,0x7E,2
    26  0000                     
    27                           ; Version 2.20
    28                           ; Generated 12/02/2020 GMT
    29                           ; 
    30                           ; Copyright © 2020, Microchip Technology Inc. and its subsidiaries ("Microchip")
    31                           ; All rights reserved.
    32                           ; 
    33                           ; This software is developed by Microchip Technology Inc. and its subsidiaries ("Microch
      +                          ip").
    34                           ; 
    35                           ; Redistribution and use in source and binary forms, with or without modification, are
    36                           ; permitted provided that the following conditions are met:
    37                           ; 
    38                           ;     1. Redistributions of source code must retain the above copyright notice, this lis
      +                          t of
    39                           ;        conditions and the following disclaimer.
    40                           ; 
    41                           ;     2. Redistributions in binary form must reproduce the above copyright notice, this 
      +                          list
    42                           ;        of conditions and the following disclaimer in the documentation and/or other
    43                           ;        materials provided with the distribution.
    44                           ; 
    45                           ;     3. Microchip's name may not be used to endorse or promote products derived from th
      +                          is
    46                           ;        software without specific prior written permission.
    47                           ; 
    48                           ; THIS SOFTWARE IS PROVIDED BY MICROCHIP "AS IS" AND ANY EXPRESS OR IMPLIED WARRANTIES,
    49                           ; INCLUDING, BUT NOT LIMITED TO, THE IMPLIED WARRANTIES OF MERCHANTABILITY AND FITNESS F
      +                          OR
    50                           ; PURPOSE ARE DISCLAIMED.  IN NO EVENT SHALL MICROCHIP BE LIABLE FOR ANY DIRECT, INDIREC
      +                          T,
    51                           ; INCIDENTAL, SPECIAL, EXEMPLARY, OR CONSEQUENTIAL DAMAGES (INCLUDING BUT NOT LIMITED TO
    52                           ; PROCUREMENT OF SUBSTITUTE GOODS OR SERVICES; LOSS OF USE, DATA OR PROFITS; OR BUSINESS
    53                           ; INTERRUPTION) HOWSOEVER CAUSED AND ON ANY THEORY OF LIABILITY, WHETHER IN CONTRACT, ST
      +                          RICT
    54                           ; LIABILITY, OR TORT (INCLUDING NEGLIGENCE OR OTHERWISE) ARISING IN ANY WAY OUT OF THE U
      +                          SE OF
    55                           ; THIS SOFTWARE, EVEN IF ADVISED OF THE POSSIBILITY OF SUCH DAMAGE.
    56                           ; 
    57                           ; 
    58                           ; Code-generator required, PIC16F877A Definitions
    59                           ; 
    60                           ; SFR Addresses
    61  0000                     	;# 
    62  0001                     	;# 
    63  0002                     	;# 
    64  0003                     	;# 
    65  0004                     	;# 
    66  0005                     	;# 
    67  0006                     	;# 
    68  0007                     	;# 
    69  0008                     	;# 
    70  0009                     	;# 
    71  000A                     	;# 
    72  000B                     	;# 
    73  000C                     	;# 
    74  000D                     	;# 
    75  000E                     	;# 
    76  000E                     	;# 
    77  000F                     	;# 
    78  0010                     	;# 
    79  0011                     	;# 
    80  0012                     	;# 
    81  0013                     	;# 
    82  0014                     	;# 
    83  0015                     	;# 
    84  0015                     	;# 
    85  0016                     	;# 
    86  0017                     	;# 
    87  0018                     	;# 
    88  0019                     	;# 
    89  001A                     	;# 
    90  001B                     	;# 
    91  001B                     	;# 
    92  001C                     	;# 
    93  001D                     	;# 
    94  001E                     	;# 
    95  001F                     	;# 
    96  0081                     	;# 
    97  0085                     	;# 
    98  0086                     	;# 
    99  0087                     	;# 
   100  0088                     	;# 
   101  0089                     	;# 
   102  008C                     	;# 
   103  008D                     	;# 
   104  008E                     	;# 
   105  0091                     	;# 
   106  0092                     	;# 
   107  0093                     	;# 
   108  0094                     	;# 
   109  0098                     	;# 
   110  0099                     	;# 
   111  009C                     	;# 
   112  009D                     	;# 
   113  009E                     	;# 
   114  009F                     	;# 
   115  010C                     	;# 
   116  010D                     	;# 
   117  010E                     	;# 
   118  010F                     	;# 
   119  018C                     	;# 
   120  018D                     	;# 
   121  0000                     	;# 
   122  0001                     	;# 
   123  0002                     	;# 
   124  0003                     	;# 
   125  0004                     	;# 
   126  0005                     	;# 
   127  0006                     	;# 
   128  0007                     	;# 
   129  0008                     	;# 
   130  0009                     	;# 
   131  000A                     	;# 
   132  000B                     	;# 
   133  000C                     	;# 
   134  000D                     	;# 
   135  000E                     	;# 
   136  000E                     	;# 
   137  000F                     	;# 
   138  0010                     	;# 
   139  0011                     	;# 
   140  0012                     	;# 
   141  0013                     	;# 
   142  0014                     	;# 
   143  0015                     	;# 
   144  0015                     	;# 
   145  0016                     	;# 
   146  0017                     	;# 
   147  0018                     	;# 
   148  0019                     	;# 
   149  001A                     	;# 
   150  001B                     	;# 
   151  001B                     	;# 
   152  001C                     	;# 
   153  001D                     	;# 
   154  001E                     	;# 
   155  001F                     	;# 
   156  0081                     	;# 
   157  0085                     	;# 
   158  0086                     	;# 
   159  0087                     	;# 
   160  0088                     	;# 
   161  0089                     	;# 
   162  008C                     	;# 
   163  008D                     	;# 
   164  008E                     	;# 
   165  0091                     	;# 
   166  0092                     	;# 
   167  0093                     	;# 
   168  0094                     	;# 
   169  0098                     	;# 
   170  0099                     	;# 
   171  009C                     	;# 
   172  009D                     	;# 
   173  009E                     	;# 
   174  009F                     	;# 
   175  010C                     	;# 
   176  010D                     	;# 
   177  010E                     	;# 
   178  010F                     	;# 
   179  018C                     	;# 
   180  018D                     	;# 
   181                           
   182                           	psect	idataBANK1
   183  07F1                     __pidataBANK1:
   184                           
   185                           ;initializer for _TABELA
   186  07F1  34C0               	retlw	192
   187  07F2  34F9               	retlw	249
   188  07F3  34A4               	retlw	164
   189  07F4  34B0               	retlw	176
   190  07F5  3499               	retlw	153
   191  07F6  3492               	retlw	146
   192  07F7  3482               	retlw	130
   193  07F8  34F8               	retlw	248
   194  07F9  3480               	retlw	128
   195  07FA  3490               	retlw	144
   196  07FB  343F               	retlw	63
   197  001E                     _ADRESH	set	30
   198  001F                     _ADCON0bits	set	31
   199  0010                     _T1CONbits	set	16
   200  000B                     _INTCONbits	set	11
   201  0008                     _PORTD	set	8
   202  0006                     _PORTBbits	set	6
   203  000F                     _TMR1H	set	15
   204  000E                     _TMR1L	set	14
   205  000C                     _PIR1bits	set	12
   206  0060                     _TMR1IF	set	96
   207  009F                     _ADCON1bits	set	159
   208  008C                     _PIE1bits	set	140
   209  0088                     _TRISD	set	136
   210  0086                     _TRISB	set	134
   211                           
   212                           	psect	cinit
   213  0011                     start_initialization:	
   214                           ; #config settings
   215                           
   216  0011                     __initialization:
   217                           
   218                           ; Initialize objects allocated to BANK1
   219  0011  1383               	bcf	3,7	;select IRP bank0
   220  0012  30AB               	movlw	low (__pdataBANK1+11)
   221  0013  00FD               	movwf	btemp+-1
   222  0014  3007               	movlw	high __pidataBANK1
   223  0015  00FE               	movwf	btemp
   224  0016  30F1               	movlw	low __pidataBANK1
   225  0017  00FF               	movwf	btemp+1
   226  0018  30A0               	movlw	low __pdataBANK1
   227  0019  0084               	movwf	4
   228  001A  120A  118A  27E2  120A  118A  	fcall	init_ram0
   229                           
   230                           ; Clear objects allocated to BANK0
   231  001F  01E8               	clrf	__pbssBANK0& (0+127)
   232  0020  01E9               	clrf	(__pbssBANK0+1)& (0+127)
   233  0021  01EA               	clrf	(__pbssBANK0+2)& (0+127)
   234  0022  01EB               	clrf	(__pbssBANK0+3)& (0+127)
   235  0023  01EC               	clrf	(__pbssBANK0+4)& (0+127)
   236  0024  01ED               	clrf	(__pbssBANK0+5)& (0+127)
   237  0025  01EE               	clrf	(__pbssBANK0+6)& (0+127)
   238  0026  01EF               	clrf	(__pbssBANK0+7)& (0+127)
   239                           
   240                           ; Clear objects allocated to COMMON
   241  0027  01F9               	clrf	__pbssCOMMON& (0+127)
   242  0028  01FA               	clrf	(__pbssCOMMON+1)& (0+127)
   243  0029  01FB               	clrf	(__pbssCOMMON+2)& (0+127)
   244  002A  01FC               	clrf	(__pbssCOMMON+3)& (0+127)
   245  002B                     end_of_initialization:	
   246                           ;End of C runtime variable initialization code
   247                           
   248  002B                     __end_of__initialization:
   249  002B  0183               	clrf	3
   250  002C  120A  118A  2F5A   	ljmp	_main	;jump to C main() function
   251                           
   252                           	psect	bssCOMMON
   253  0079                     __pbssCOMMON:
   254  0079                     _indice:
   255  0079                     	ds	2
   256  007B                     _celsius:
   257  007B                     	ds	2
   258                           
   259                           	psect	bssBANK0
   260  0068                     __pbssBANK0:
   261  0068                     _valor:
   262  0068                     	ds	2
   263  006A                     _digits:
   264  006A                     	ds	6
   265                           
   266                           	psect	dataBANK1
   267  00A0                     __pdataBANK1:
   268  00A0                     _TABELA:
   269  00A0                     	ds	11
   270                           
   271                           	psect	inittext
   272  07DE                     init_fetch0:	
   273                           ;	Called with low address in FSR and high address in W
   274                           
   275  07DE  087E               	movf	btemp,w
   276  07DF  008A               	movwf	10
   277  07E0  087F               	movf	btemp+1,w
   278  07E1  0082               	movwf	2
   279  07E2                     init_ram0:	
   280                           ;Called with:
   281                           ;	high address of idata address in btemp 
   282                           ;	low address of idata address in btemp+1 
   283                           ;	low address of data in FSR
   284                           ;	high address + 1 of data in btemp-1
   285                           
   286  07E2  120A  118A  27DE  120A  118A  	fcall	init_fetch0
   287  07E7  0080               	movwf	0
   288  07E8  0A84               	incf	4,f
   289  07E9  0804               	movf	4,w
   290  07EA  067D               	xorwf	btemp+-1,w
   291  07EB  1903               	btfsc	3,2
   292  07EC  3400               	retlw	0
   293  07ED  0AFF               	incf	btemp+1,f
   294  07EE  1903               	btfsc	3,2
   295  07EF  0AFE               	incf	btemp,f
   296  07F0  2FE2               	goto	init_ram0
   297                           
   298                           	psect	cstackCOMMON
   299  0070                     __pcstackCOMMON:
   300  0070                     ?_TrataInt:
   301  0070                     ??_TrataInt:	
   302                           ; 1 bytes @ 0x0
   303                           
   304  0070                     ?_main:	
   305                           ; 1 bytes @ 0x0
   306                           
   307                           
   308                           ; 1 bytes @ 0x0
   309  0070                     	ds	5
   310  0075                     _TrataInt$268:
   311                           
   312                           ; 2 bytes @ 0x5
   313  0075                     	ds	2
   314  0077                     _TrataInt$269:
   315                           
   316                           ; 2 bytes @ 0x7
   317  0077                     	ds	2
   318                           
   319                           	psect	cstackBANK0
   320  0020                     __pcstackBANK0:
   321  0020                     ?__Umul8_16:
   322  0020                     ?___awdiv:	
   323                           ; 2 bytes @ 0x0
   324                           
   325  0020                     ?___awmod:	
   326                           ; 2 bytes @ 0x0
   327                           
   328  0020                     ?___xxtofl:	
   329                           ; 2 bytes @ 0x0
   330                           
   331  0020                     __Umul8_16@multiplicand:	
   332                           ; 4 bytes @ 0x0
   333                           
   334  0020                     ___awdiv@divisor:	
   335                           ; 1 bytes @ 0x0
   336                           
   337  0020                     ___awmod@divisor:	
   338                           ; 2 bytes @ 0x0
   339                           
   340  0020                     ___xxtofl@val:	
   341                           ; 2 bytes @ 0x0
   342                           
   343                           
   344                           ; 4 bytes @ 0x0
   345  0020                     	ds	2
   346  0022                     ??__Umul8_16:
   347  0022                     ___awdiv@dividend:	
   348                           ; 1 bytes @ 0x2
   349                           
   350  0022                     ___awmod@dividend:	
   351                           ; 2 bytes @ 0x2
   352                           
   353                           
   354                           ; 2 bytes @ 0x2
   355  0022                     	ds	2
   356  0024                     ??___awdiv:
   357  0024                     ??___awmod:	
   358                           ; 1 bytes @ 0x4
   359                           
   360  0024                     ??___xxtofl:	
   361                           ; 1 bytes @ 0x4
   362                           
   363  0024                     __Umul8_16@product:	
   364                           ; 1 bytes @ 0x4
   365                           
   366                           
   367                           ; 2 bytes @ 0x4
   368  0024                     	ds	1
   369  0025                     ___awdiv@counter:
   370  0025                     ___awmod@counter:	
   371                           ; 1 bytes @ 0x5
   372                           
   373                           
   374                           ; 1 bytes @ 0x5
   375  0025                     	ds	1
   376  0026                     ___awdiv@sign:
   377  0026                     ___awmod@sign:	
   378                           ; 1 bytes @ 0x6
   379                           
   380  0026                     __Umul8_16@word_mpld:	
   381                           ; 1 bytes @ 0x6
   382                           
   383                           
   384                           ; 2 bytes @ 0x6
   385  0026                     	ds	1
   386  0027                     ___awdiv@quotient:
   387                           
   388                           ; 2 bytes @ 0x7
   389  0027                     	ds	1
   390  0028                     __Umul8_16@multiplier:
   391  0028                     ___xxtofl@sign:	
   392                           ; 1 bytes @ 0x8
   393                           
   394                           
   395                           ; 1 bytes @ 0x8
   396  0028                     	ds	1
   397  0029                     ?_separateDigits:
   398  0029                     ?___flmul:	
   399                           ; 1 bytes @ 0x9
   400                           
   401  0029                     ___xxtofl@exp:	
   402                           ; 4 bytes @ 0x9
   403                           
   404  0029                     separateDigits@value:	
   405                           ; 1 bytes @ 0x9
   406                           
   407  0029                     ___flmul@b:	
   408                           ; 2 bytes @ 0x9
   409                           
   410                           
   411                           ; 4 bytes @ 0x9
   412  0029                     	ds	1
   413  002A                     ___xxtofl@arg:
   414                           
   415                           ; 4 bytes @ 0xA
   416  002A                     	ds	1
   417  002B                     separateDigits@result:
   418                           
   419                           ; 1 bytes @ 0xB
   420  002B                     	ds	1
   421  002C                     ??_separateDigits:
   422                           
   423                           ; 1 bytes @ 0xC
   424  002C                     	ds	1
   425  002D                     ___flmul@a:
   426                           
   427                           ; 4 bytes @ 0xD
   428  002D                     	ds	1
   429  002E                     separateDigits@num:
   430                           
   431                           ; 2 bytes @ 0xE
   432  002E                     	ds	2
   433  0030                     separateDigits@i:
   434                           
   435                           ; 2 bytes @ 0x10
   436  0030                     	ds	1
   437  0031                     ??___flmul:
   438                           
   439                           ; 1 bytes @ 0x11
   440  0031                     	ds	5
   441  0036                     ___flmul@sign:
   442                           
   443                           ; 1 bytes @ 0x16
   444  0036                     	ds	1
   445  0037                     ___flmul@grs:
   446                           
   447                           ; 4 bytes @ 0x17
   448  0037                     	ds	4
   449  003B                     ___flmul@aexp:
   450                           
   451                           ; 1 bytes @ 0x1B
   452  003B                     	ds	1
   453  003C                     ___flmul@bexp:
   454                           
   455                           ; 1 bytes @ 0x1C
   456  003C                     	ds	1
   457  003D                     ___flmul@prod:
   458                           
   459                           ; 4 bytes @ 0x1D
   460  003D                     	ds	4
   461  0041                     ___flmul@temp:
   462                           
   463                           ; 2 bytes @ 0x21
   464  0041                     	ds	2
   465  0043                     ?___fladd:
   466  0043                     ___fladd@b:	
   467                           ; 4 bytes @ 0x23
   468                           
   469                           
   470                           ; 4 bytes @ 0x23
   471  0043                     	ds	4
   472  0047                     ___fladd@a:
   473                           
   474                           ; 4 bytes @ 0x27
   475  0047                     	ds	4
   476  004B                     ??___fladd:
   477                           
   478                           ; 1 bytes @ 0x2B
   479  004B                     	ds	8
   480  0053                     ___fladd@signs:
   481                           
   482                           ; 1 bytes @ 0x33
   483  0053                     	ds	1
   484  0054                     ___fladd@aexp:
   485                           
   486                           ; 1 bytes @ 0x34
   487  0054                     	ds	1
   488  0055                     ___fladd@bexp:
   489                           
   490                           ; 1 bytes @ 0x35
   491  0055                     	ds	1
   492  0056                     ___fladd@grs:
   493                           
   494                           ; 1 bytes @ 0x36
   495  0056                     	ds	1
   496  0057                     ?_mapToCelsius:
   497  0057                     mapToCelsius@value:	
   498                           ; 4 bytes @ 0x37
   499                           
   500                           
   501                           ; 4 bytes @ 0x37
   502  0057                     	ds	4
   503  005B                     ??_mapToCelsius:
   504  005B                     ?___fltol:	
   505                           ; 1 bytes @ 0x3B
   506                           
   507  005B                     ___fltol@f1:	
   508                           ; 4 bytes @ 0x3B
   509                           
   510                           
   511                           ; 4 bytes @ 0x3B
   512  005B                     	ds	4
   513  005F                     ??___fltol:
   514                           
   515                           ; 1 bytes @ 0x3F
   516  005F                     	ds	5
   517  0064                     ___fltol@sign1:
   518                           
   519                           ; 1 bytes @ 0x44
   520  0064                     	ds	1
   521  0065                     ___fltol@exp1:
   522                           
   523                           ; 1 bytes @ 0x45
   524  0065                     	ds	1
   525  0066                     ??_main:
   526                           
   527                           ; 1 bytes @ 0x46
   528  0066                     	ds	2
   529                           
   530                           	psect	maintext
   531  075A                     __pmaintext:	
   532 ;;
   533 ;;Main: autosize = 0, tempsize = 2, incstack = 0, save=0
   534 ;;
   535 ;; *************** function _main *****************
   536 ;; Defined at:
   537 ;;		line 103 in file "main.c"
   538 ;; Parameters:    Size  Location     Type
   539 ;;		None
   540 ;; Auto vars:     Size  Location     Type
   541 ;;		None
   542 ;; Return value:  Size  Location     Type
   543 ;;                  1    wreg      void 
   544 ;; Registers used:
   545 ;;		wreg, fsr0l, fsr0h, status,2, status,0, btemp+1, pclath, cstack
   546 ;; Tracked objects:
   547 ;;		On entry : B00/0
   548 ;;		On exit  : 0/0
   549 ;;		Unchanged: 0/0
   550 ;; Data sizes:     COMMON   BANK0   BANK1   BANK3   BANK2
   551 ;;      Params:         0       0       0       0       0
   552 ;;      Locals:         0       0       0       0       0
   553 ;;      Temps:          0       2       0       0       0
   554 ;;      Totals:         0       2       0       0       0
   555 ;;Total ram usage:        2 bytes
   556 ;; Hardware stack levels required when called: 4
   557 ;; This function calls:
   558 ;;		___fltol
   559 ;;		___xxtofl
   560 ;;		_mapToCelsius
   561 ;;		_separateDigits
   562 ;; This function is called by:
   563 ;;		Startup code after reset
   564 ;; This function uses a non-reentrant model
   565 ;;
   566                           
   567                           
   568                           ;psect for function _main
   569  075A                     _main:
   570  075A                     l1899:	
   571                           ;incstack = 0
   572                           ; Regs used in _main: [wreg-fsr0h+status,2+status,0+btemp+1+pclath+cstack]
   573                           
   574                           
   575                           ;main.c: 105: 
   576  075A  3020               	movlw	32
   577  075B  1683               	bsf	3,5	;RP0=1, select bank1
   578  075C  1303               	bcf	3,6	;RP1=0, select bank1
   579  075D  0086               	movwf	6	;volatile
   580  075E                     l1901:
   581                           
   582                           ;main.c: 106:     T1CONbits.TMR1ON = 1;
   583  075E  0188               	clrf	8	;volatile
   584  075F                     l1903:
   585                           
   586                           ;main.c: 107: 
   587  075F  178B               	bsf	11,7	;volatile
   588  0760                     l1905:
   589                           
   590                           ;main.c: 108: 
   591  0760  170B               	bsf	11,6	;volatile
   592  0761                     l1907:
   593                           
   594                           ;main.c: 109: 
   595  0761  140C               	bsf	12,0	;volatile
   596  0762                     l1909:
   597                           
   598                           ;main.c: 112:     ADCON1bits.PCFG2 = 1;
   599  0762  1283               	bcf	3,5	;RP0=0, select bank0
   600  0763  1303               	bcf	3,6	;RP1=0, select bank0
   601  0764  1010               	bcf	16,0	;volatile
   602  0765                     l1911:
   603                           
   604                           ;main.c: 113:     ADCON1bits.PCFG3 = 1;
   605  0765  1590               	bsf	16,3	;volatile
   606  0766                     l1913:
   607                           
   608                           ;main.c: 114: 
   609  0766  1610               	bsf	16,4	;volatile
   610  0767                     l1915:
   611                           
   612                           ;main.c: 115: 
   613  0767  1690               	bsf	16,5	;volatile
   614  0768                     l1917:
   615                           
   616                           ;main.c: 117:     ADCON0bits.ADCS1 = 0;
   617  0768  308F               	movlw	143
   618  0769  008E               	movwf	14	;volatile
   619  076A                     l1919:
   620                           
   621                           ;main.c: 118: 
   622  076A  30FD               	movlw	253
   623  076B  008F               	movwf	15	;volatile
   624  076C                     l1921:
   625                           
   626                           ;main.c: 124: 
   627  076C  1410               	bsf	16,0	;volatile
   628  076D                     l1923:
   629                           
   630                           ;main.c: 128: 
   631  076D  1683               	bsf	3,5	;RP0=1, select bank1
   632  076E  1303               	bcf	3,6	;RP1=0, select bank1
   633  076F  141F               	bsf	31,0	;volatile
   634  0770                     l1925:
   635                           
   636                           ;main.c: 129:     PORTD = TABELA[1];
   637  0770  149F               	bsf	31,1	;volatile
   638  0771                     l1927:
   639                           
   640                           ;main.c: 130: 
   641  0771  151F               	bsf	31,2	;volatile
   642  0772                     l1929:
   643                           
   644                           ;main.c: 131:     while (1) {
   645  0772  159F               	bsf	31,3	;volatile
   646  0773                     l1931:
   647                           
   648                           ;main.c: 134:         ADCON0bits.CHS2 = 0;
   649  0773  1283               	bcf	3,5	;RP0=0, select bank0
   650  0774  1303               	bcf	3,6	;RP1=0, select bank0
   651  0775  131F               	bcf	31,6	;volatile
   652  0776                     l1933:
   653                           
   654                           ;main.c: 135: 
   655  0776  139F               	bcf	31,7	;volatile
   656  0777                     l1935:
   657                           
   658                           ;main.c: 137:         _delay((unsigned long)((10)*(4000000/4000000.0)));
   659  0777  1683               	bsf	3,5	;RP0=1, select bank1
   660  0778  1303               	bcf	3,6	;RP1=0, select bank1
   661  0779  139F               	bcf	31,7	;volatile
   662  077A                     l1937:
   663                           
   664                           ;main.c: 144: }
   665  077A  1283               	bcf	3,5	;RP0=0, select bank0
   666  077B  1303               	bcf	3,6	;RP1=0, select bank0
   667  077C  019E               	clrf	30	;volatile
   668  077D                     l1939:
   669  077D  141F               	bsf	31,0	;volatile
   670  077E  1683               	bsf	3,5	;RP0=1, select bank1
   671  077F  1303               	bcf	3,6	;RP1=0, select bank1
   672  0780  0821               	movf	(_TABELA^(0+128)+1),w
   673  0781  1283               	bcf	3,5	;RP0=0, select bank0
   674  0782  1303               	bcf	3,6	;RP1=0, select bank0
   675  0783  0088               	movwf	8	;volatile
   676  0784                     l1941:
   677  0784  1283               	bcf	3,5	;RP0=0, select bank0
   678  0785  1303               	bcf	3,6	;RP1=0, select bank0
   679  0786  119F               	bcf	31,3	;volatile
   680  0787                     l1943:
   681  0787  121F               	bcf	31,4	;volatile
   682  0788                     l1945:
   683  0788  129F               	bcf	31,5	;volatile
   684  0789                     l1947:
   685  0789  151F               	bsf	31,2	;volatile
   686  078A  3002               	movlw	2
   687  078B  1283               	bcf	3,5	;RP0=0, select bank0
   688  078C  1303               	bcf	3,6	;RP1=0, select bank0
   689  078D  00E6               	movwf	??_main
   690  078E                     u2717:
   691  078E  0BE6               	decfsz	??_main,f
   692  078F  2F8E               	goto	u2717
   693  0790  0000               	nop
   694  0791  1283               	bcf	3,5	;RP0=0, select bank0
   695  0792  1303               	bcf	3,6	;RP1=0, select bank0
   696  0793  081E               	movf	30,w	;volatile
   697  0794  00E6               	movwf	??_main
   698  0795  01E7               	clrf	??_main+1
   699  0796  0866               	movf	??_main,w
   700  0797  00E8               	movwf	_valor
   701  0798  0867               	movf	??_main+1,w
   702  0799  00E9               	movwf	_valor+1
   703  079A                     l1949:
   704  079A  0868               	movf	_valor,w
   705  079B  00A0               	movwf	___xxtofl@val
   706  079C  0869               	movf	_valor+1,w
   707  079D  00A1               	movwf	___xxtofl@val+1
   708  079E  3000               	movlw	0
   709  079F  1BA1               	btfsc	___xxtofl@val+1,7
   710  07A0  30FF               	movlw	255
   711  07A1  00A2               	movwf	___xxtofl@val+2
   712  07A2  00A3               	movwf	___xxtofl@val+3
   713  07A3  3001               	movlw	1
   714  07A4  120A  118A  2618  120A  118A  	fcall	___xxtofl
   715  07A9  1283               	bcf	3,5	;RP0=0, select bank0
   716  07AA  1303               	bcf	3,6	;RP1=0, select bank0
   717  07AB  0823               	movf	?___xxtofl+3,w
   718  07AC  00DA               	movwf	mapToCelsius@value+3
   719  07AD  0822               	movf	?___xxtofl+2,w
   720  07AE  00D9               	movwf	mapToCelsius@value+2
   721  07AF  0821               	movf	?___xxtofl+1,w
   722  07B0  00D8               	movwf	mapToCelsius@value+1
   723  07B1  0820               	movf	?___xxtofl,w
   724  07B2  00D7               	movwf	mapToCelsius@value
   725  07B3  120A  158A  2643  120A  118A  	fcall	_mapToCelsius
   726  07B8  1283               	bcf	3,5	;RP0=0, select bank0
   727  07B9  1303               	bcf	3,6	;RP1=0, select bank0
   728  07BA  085A               	movf	?_mapToCelsius+3,w
   729  07BB  00DE               	movwf	___fltol@f1+3
   730  07BC  0859               	movf	?_mapToCelsius+2,w
   731  07BD  00DD               	movwf	___fltol@f1+2
   732  07BE  0858               	movf	?_mapToCelsius+1,w
   733  07BF  00DC               	movwf	___fltol@f1+1
   734  07C0  0857               	movf	?_mapToCelsius,w
   735  07C1  00DB               	movwf	___fltol@f1
   736  07C2  120A  158A  2784  120A  118A  	fcall	___fltol
   737  07C7  1283               	bcf	3,5	;RP0=0, select bank0
   738  07C8  1303               	bcf	3,6	;RP1=0, select bank0
   739  07C9  085C               	movf	?___fltol+1,w
   740  07CA  00FC               	movwf	_celsius+1
   741  07CB  085B               	movf	?___fltol,w
   742  07CC  00FB               	movwf	_celsius
   743  07CD                     l1951:
   744  07CD  087C               	movf	_celsius+1,w
   745  07CE  00AA               	movwf	separateDigits@value+1
   746  07CF  087B               	movf	_celsius,w
   747  07D0  00A9               	movwf	separateDigits@value
   748  07D1  306A               	movlw	(low (_digits| 0))& (0+255)
   749  07D2  00E6               	movwf	??_main
   750  07D3  0866               	movf	??_main,w
   751  07D4  00AB               	movwf	separateDigits@result
   752  07D5  120A  158A  267C  120A  118A  	fcall	_separateDigits
   753  07DA  2F84               	goto	l1941
   754  07DB  120A  118A  280E   	ljmp	start
   755  07DE                     __end_of_main:
   756                           
   757                           	psect	text1
   758  0E7C                     __ptext1:	
   759 ;; *************** function _separateDigits *****************
   760 ;; Defined at:
   761 ;;		line 47 in file "main.c"
   762 ;; Parameters:    Size  Location     Type
   763 ;;  value           2    9[BANK0 ] int 
   764 ;;  result          1   11[BANK0 ] PTR int 
   765 ;;		 -> digits(6), 
   766 ;; Auto vars:     Size  Location     Type
   767 ;;  i               2   16[BANK0 ] int 
   768 ;;  num             2   14[BANK0 ] int 
   769 ;; Return value:  Size  Location     Type
   770 ;;                  1    wreg      void 
   771 ;; Registers used:
   772 ;;		wreg, fsr0l, fsr0h, status,2, status,0, pclath, cstack
   773 ;; Tracked objects:
   774 ;;		On entry : 0/0
   775 ;;		On exit  : 0/0
   776 ;;		Unchanged: 0/0
   777 ;; Data sizes:     COMMON   BANK0   BANK1   BANK3   BANK2
   778 ;;      Params:         0       3       0       0       0
   779 ;;      Locals:         0       4       0       0       0
   780 ;;      Temps:          0       2       0       0       0
   781 ;;      Totals:         0       9       0       0       0
   782 ;;Total ram usage:        9 bytes
   783 ;; Hardware stack levels used: 1
   784 ;; Hardware stack levels required when called: 2
   785 ;; This function calls:
   786 ;;		___awdiv
   787 ;;		___awmod
   788 ;; This function is called by:
   789 ;;		_main
   790 ;; This function uses a non-reentrant model
   791 ;;
   792                           
   793                           
   794                           ;psect for function _separateDigits
   795  0E7C                     _separateDigits:
   796  0E7C                     l1761:	
   797                           ;incstack = 0
   798                           ; Regs used in _separateDigits: [wreg-fsr0h+status,2+status,0+pclath+cstack]
   799                           
   800                           
   801                           ;main.c: 48:         {
   802  0E7C  1283               	bcf	3,5	;RP0=0, select bank0
   803  0E7D  1303               	bcf	3,6	;RP1=0, select bank0
   804  0E7E  082A               	movf	separateDigits@value+1,w
   805  0E7F  00AF               	movwf	separateDigits@num+1
   806  0E80  0829               	movf	separateDigits@value,w
   807  0E81  00AE               	movwf	separateDigits@num
   808                           
   809                           ;main.c: 50:             case 1:
   810  0E82  3002               	movlw	2
   811  0E83  00B0               	movwf	separateDigits@i
   812  0E84  3000               	movlw	0
   813  0E85  00B1               	movwf	separateDigits@i+1
   814  0E86                     l1767:
   815                           
   816                           ;main.c: 51:                 PORTBbits.RB3 = 1;
   817  0E86  300A               	movlw	10
   818  0E87  00A0               	movwf	___awmod@divisor
   819  0E88  3000               	movlw	0
   820  0E89  00A1               	movwf	___awmod@divisor+1
   821  0E8A  082F               	movf	separateDigits@num+1,w
   822  0E8B  00A3               	movwf	___awmod@dividend+1
   823  0E8C  082E               	movf	separateDigits@num,w
   824  0E8D  00A2               	movwf	___awmod@dividend
   825  0E8E  120A  158A  26C0  120A  158A  	fcall	___awmod
   826  0E93  1283               	bcf	3,5	;RP0=0, select bank0
   827  0E94  1303               	bcf	3,6	;RP1=0, select bank0
   828  0E95  0830               	movf	separateDigits@i,w
   829  0E96  00AC               	movwf	??_separateDigits
   830  0E97  072C               	addwf	??_separateDigits,w
   831  0E98  072B               	addwf	separateDigits@result,w
   832  0E99  00AD               	movwf	??_separateDigits+1
   833  0E9A  082D               	movf	??_separateDigits+1,w
   834  0E9B  0084               	movwf	4
   835  0E9C  0820               	movf	?___awmod,w
   836  0E9D  1383               	bcf	3,7	;select IRP bank0
   837  0E9E  0080               	movwf	0
   838  0E9F  0A84               	incf	4,f
   839  0EA0  0821               	movf	?___awmod+1,w
   840  0EA1  0080               	movwf	0
   841  0EA2                     l1769:
   842                           
   843                           ;main.c: 52:                 PORTBbits.RB4 = 1;
   844  0EA2  300A               	movlw	10
   845  0EA3  00A0               	movwf	___awdiv@divisor
   846  0EA4  3000               	movlw	0
   847  0EA5  00A1               	movwf	___awdiv@divisor+1
   848  0EA6  082F               	movf	separateDigits@num+1,w
   849  0EA7  00A3               	movwf	___awdiv@dividend+1
   850  0EA8  082E               	movf	separateDigits@num,w
   851  0EA9  00A2               	movwf	___awdiv@dividend
   852  0EAA  120A  158A  271B  120A  158A  	fcall	___awdiv
   853  0EAF  1283               	bcf	3,5	;RP0=0, select bank0
   854  0EB0  1303               	bcf	3,6	;RP1=0, select bank0
   855  0EB1  0821               	movf	?___awdiv+1,w
   856  0EB2  00AF               	movwf	separateDigits@num+1
   857  0EB3  0820               	movf	?___awdiv,w
   858  0EB4  00AE               	movwf	separateDigits@num
   859  0EB5                     l1771:
   860                           
   861                           ;main.c: 53:                 PORTBbits.RB2 = 0;
   862  0EB5  30FF               	movlw	255
   863  0EB6  07B0               	addwf	separateDigits@i,f
   864  0EB7  1803               	skipnc
   865  0EB8  0AB1               	incf	separateDigits@i+1,f
   866  0EB9  30FF               	movlw	255
   867  0EBA  07B1               	addwf	separateDigits@i+1,f
   868  0EBB                     l1773:
   869  0EBB  1FB1               	btfss	separateDigits@i+1,7
   870  0EBC  2EBE               	goto	u2411
   871  0EBD  2EBF               	goto	u2410
   872  0EBE                     u2411:
   873  0EBE  2E86               	goto	l1767
   874  0EBF                     u2410:
   875  0EBF                     l48:
   876  0EBF  0008               	return
   877  0EC0                     __end_of_separateDigits:
   878                           
   879                           	psect	text2
   880  0EC0                     __ptext2:	
   881 ;; *************** function ___awmod *****************
   882 ;; Defined at:
   883 ;;		line 5 in file "C:\Program Files\Microchip\xc8\v2.32\pic\sources\c90\common\awmod.c"
   884 ;; Parameters:    Size  Location     Type
   885 ;;  divisor         2    0[BANK0 ] int 
   886 ;;  dividend        2    2[BANK0 ] int 
   887 ;; Auto vars:     Size  Location     Type
   888 ;;  sign            1    6[BANK0 ] unsigned char 
   889 ;;  counter         1    5[BANK0 ] unsigned char 
   890 ;; Return value:  Size  Location     Type
   891 ;;                  2    0[BANK0 ] int 
   892 ;; Registers used:
   893 ;;		wreg, status,2, status,0
   894 ;; Tracked objects:
   895 ;;		On entry : 0/0
   896 ;;		On exit  : 0/0
   897 ;;		Unchanged: 0/0
   898 ;; Data sizes:     COMMON   BANK0   BANK1   BANK3   BANK2
   899 ;;      Params:         0       4       0       0       0
   900 ;;      Locals:         0       2       0       0       0
   901 ;;      Temps:          0       1       0       0       0
   902 ;;      Totals:         0       7       0       0       0
   903 ;;Total ram usage:        7 bytes
   904 ;; Hardware stack levels used: 1
   905 ;; Hardware stack levels required when called: 1
   906 ;; This function calls:
   907 ;;		Nothing
   908 ;; This function is called by:
   909 ;;		_separateDigits
   910 ;; This function uses a non-reentrant model
   911 ;;
   912                           
   913                           
   914                           ;psect for function ___awmod
   915  0EC0                     ___awmod:
   916  0EC0                     l1385:	
   917                           ;incstack = 0
   918                           ; Regs used in ___awmod: [wreg+status,2+status,0]
   919                           
   920  0EC0  1283               	bcf	3,5	;RP0=0, select bank0
   921  0EC1  1303               	bcf	3,6	;RP1=0, select bank0
   922  0EC2  01A6               	clrf	___awmod@sign
   923  0EC3                     l1387:
   924  0EC3  1FA3               	btfss	___awmod@dividend+1,7
   925  0EC4  2EC6               	goto	u1491
   926  0EC5  2EC7               	goto	u1490
   927  0EC6                     u1491:
   928  0EC6  2ECE               	goto	l1393
   929  0EC7                     u1490:
   930  0EC7                     l1389:
   931  0EC7  09A2               	comf	___awmod@dividend,f
   932  0EC8  09A3               	comf	___awmod@dividend+1,f
   933  0EC9  0AA2               	incf	___awmod@dividend,f
   934  0ECA  1903               	skipnz
   935  0ECB  0AA3               	incf	___awmod@dividend+1,f
   936  0ECC                     l1391:
   937  0ECC  01A6               	clrf	___awmod@sign
   938  0ECD  0AA6               	incf	___awmod@sign,f
   939  0ECE                     l1393:
   940  0ECE  1FA1               	btfss	___awmod@divisor+1,7
   941  0ECF  2ED1               	goto	u1501
   942  0ED0  2ED2               	goto	u1500
   943  0ED1                     u1501:
   944  0ED1  2ED7               	goto	l1397
   945  0ED2                     u1500:
   946  0ED2                     l1395:
   947  0ED2  09A0               	comf	___awmod@divisor,f
   948  0ED3  09A1               	comf	___awmod@divisor+1,f
   949  0ED4  0AA0               	incf	___awmod@divisor,f
   950  0ED5  1903               	skipnz
   951  0ED6  0AA1               	incf	___awmod@divisor+1,f
   952  0ED7                     l1397:
   953  0ED7  0820               	movf	___awmod@divisor,w
   954  0ED8  0421               	iorwf	___awmod@divisor+1,w
   955  0ED9  1903               	btfsc	3,2
   956  0EDA  2EDC               	goto	u1511
   957  0EDB  2EDD               	goto	u1510
   958  0EDC                     u1511:
   959  0EDC  2F0C               	goto	l1415
   960  0EDD                     u1510:
   961  0EDD                     l1399:
   962  0EDD  01A5               	clrf	___awmod@counter
   963  0EDE  0AA5               	incf	___awmod@counter,f
   964  0EDF  2EEB               	goto	l1405
   965  0EE0                     l1401:
   966  0EE0  3001               	movlw	1
   967  0EE1                     u1525:
   968  0EE1  1003               	clrc
   969  0EE2  0DA0               	rlf	___awmod@divisor,f
   970  0EE3  0DA1               	rlf	___awmod@divisor+1,f
   971  0EE4  3EFF               	addlw	-1
   972  0EE5  1D03               	skipz
   973  0EE6  2EE1               	goto	u1525
   974  0EE7                     l1403:
   975  0EE7  3001               	movlw	1
   976  0EE8  00A4               	movwf	??___awmod
   977  0EE9  0824               	movf	??___awmod,w
   978  0EEA  07A5               	addwf	___awmod@counter,f
   979  0EEB                     l1405:
   980  0EEB  1FA1               	btfss	___awmod@divisor+1,7
   981  0EEC  2EEE               	goto	u1531
   982  0EED  2EEF               	goto	u1530
   983  0EEE                     u1531:
   984  0EEE  2EE0               	goto	l1401
   985  0EEF                     u1530:
   986  0EEF                     l1407:
   987  0EEF  0821               	movf	___awmod@divisor+1,w
   988  0EF0  0223               	subwf	___awmod@dividend+1,w
   989  0EF1  1D03               	skipz
   990  0EF2  2EF5               	goto	u1545
   991  0EF3  0820               	movf	___awmod@divisor,w
   992  0EF4  0222               	subwf	___awmod@dividend,w
   993  0EF5                     u1545:
   994  0EF5  1C03               	skipc
   995  0EF6  2EF8               	goto	u1541
   996  0EF7  2EF9               	goto	u1540
   997  0EF8                     u1541:
   998  0EF8  2EFF               	goto	l1411
   999  0EF9                     u1540:
  1000  0EF9                     l1409:
  1001  0EF9  0820               	movf	___awmod@divisor,w
  1002  0EFA  02A2               	subwf	___awmod@dividend,f
  1003  0EFB  0821               	movf	___awmod@divisor+1,w
  1004  0EFC  1C03               	skipc
  1005  0EFD  03A3               	decf	___awmod@dividend+1,f
  1006  0EFE  02A3               	subwf	___awmod@dividend+1,f
  1007  0EFF                     l1411:
  1008  0EFF  3001               	movlw	1
  1009  0F00                     u1555:
  1010  0F00  1003               	clrc
  1011  0F01  0CA1               	rrf	___awmod@divisor+1,f
  1012  0F02  0CA0               	rrf	___awmod@divisor,f
  1013  0F03  3EFF               	addlw	-1
  1014  0F04  1D03               	skipz
  1015  0F05  2F00               	goto	u1555
  1016  0F06                     l1413:
  1017  0F06  3001               	movlw	1
  1018  0F07  02A5               	subwf	___awmod@counter,f
  1019  0F08  1D03               	btfss	3,2
  1020  0F09  2F0B               	goto	u1561
  1021  0F0A  2F0C               	goto	u1560
  1022  0F0B                     u1561:
  1023  0F0B  2EEF               	goto	l1407
  1024  0F0C                     u1560:
  1025  0F0C                     l1415:
  1026  0F0C  0826               	movf	___awmod@sign,w
  1027  0F0D  1903               	btfsc	3,2
  1028  0F0E  2F10               	goto	u1571
  1029  0F0F  2F11               	goto	u1570
  1030  0F10                     u1571:
  1031  0F10  2F16               	goto	l1419
  1032  0F11                     u1570:
  1033  0F11                     l1417:
  1034  0F11  09A2               	comf	___awmod@dividend,f
  1035  0F12  09A3               	comf	___awmod@dividend+1,f
  1036  0F13  0AA2               	incf	___awmod@dividend,f
  1037  0F14  1903               	skipnz
  1038  0F15  0AA3               	incf	___awmod@dividend+1,f
  1039  0F16                     l1419:
  1040  0F16  0823               	movf	___awmod@dividend+1,w
  1041  0F17  00A1               	movwf	?___awmod+1
  1042  0F18  0822               	movf	___awmod@dividend,w
  1043  0F19  00A0               	movwf	?___awmod
  1044  0F1A                     l331:
  1045  0F1A  0008               	return
  1046  0F1B                     __end_of___awmod:
  1047                           
  1048                           	psect	text3
  1049  0F1B                     __ptext3:	
  1050 ;; *************** function ___awdiv *****************
  1051 ;; Defined at:
  1052 ;;		line 5 in file "C:\Program Files\Microchip\xc8\v2.32\pic\sources\c90\common\awdiv.c"
  1053 ;; Parameters:    Size  Location     Type
  1054 ;;  divisor         2    0[BANK0 ] int 
  1055 ;;  dividend        2    2[BANK0 ] int 
  1056 ;; Auto vars:     Size  Location     Type
  1057 ;;  quotient        2    7[BANK0 ] int 
  1058 ;;  sign            1    6[BANK0 ] unsigned char 
  1059 ;;  counter         1    5[BANK0 ] unsigned char 
  1060 ;; Return value:  Size  Location     Type
  1061 ;;                  2    0[BANK0 ] int 
  1062 ;; Registers used:
  1063 ;;		wreg, status,2, status,0
  1064 ;; Tracked objects:
  1065 ;;		On entry : 0/0
  1066 ;;		On exit  : 0/0
  1067 ;;		Unchanged: 0/0
  1068 ;; Data sizes:     COMMON   BANK0   BANK1   BANK3   BANK2
  1069 ;;      Params:         0       4       0       0       0
  1070 ;;      Locals:         0       4       0       0       0
  1071 ;;      Temps:          0       1       0       0       0
  1072 ;;      Totals:         0       9       0       0       0
  1073 ;;Total ram usage:        9 bytes
  1074 ;; Hardware stack levels used: 1
  1075 ;; Hardware stack levels required when called: 1
  1076 ;; This function calls:
  1077 ;;		Nothing
  1078 ;; This function is called by:
  1079 ;;		_separateDigits
  1080 ;; This function uses a non-reentrant model
  1081 ;;
  1082                           
  1083                           
  1084                           ;psect for function ___awdiv
  1085  0F1B                     ___awdiv:
  1086  0F1B                     l1341:	
  1087                           ;incstack = 0
  1088                           ; Regs used in ___awdiv: [wreg+status,2+status,0]
  1089                           
  1090  0F1B  1283               	bcf	3,5	;RP0=0, select bank0
  1091  0F1C  1303               	bcf	3,6	;RP1=0, select bank0
  1092  0F1D  01A6               	clrf	___awdiv@sign
  1093  0F1E                     l1343:
  1094  0F1E  1FA1               	btfss	___awdiv@divisor+1,7
  1095  0F1F  2F21               	goto	u1391
  1096  0F20  2F22               	goto	u1390
  1097  0F21                     u1391:
  1098  0F21  2F29               	goto	l1349
  1099  0F22                     u1390:
  1100  0F22                     l1345:
  1101  0F22  09A0               	comf	___awdiv@divisor,f
  1102  0F23  09A1               	comf	___awdiv@divisor+1,f
  1103  0F24  0AA0               	incf	___awdiv@divisor,f
  1104  0F25  1903               	skipnz
  1105  0F26  0AA1               	incf	___awdiv@divisor+1,f
  1106  0F27                     l1347:
  1107  0F27  01A6               	clrf	___awdiv@sign
  1108  0F28  0AA6               	incf	___awdiv@sign,f
  1109  0F29                     l1349:
  1110  0F29  1FA3               	btfss	___awdiv@dividend+1,7
  1111  0F2A  2F2C               	goto	u1401
  1112  0F2B  2F2D               	goto	u1400
  1113  0F2C                     u1401:
  1114  0F2C  2F36               	goto	l1355
  1115  0F2D                     u1400:
  1116  0F2D                     l1351:
  1117  0F2D  09A2               	comf	___awdiv@dividend,f
  1118  0F2E  09A3               	comf	___awdiv@dividend+1,f
  1119  0F2F  0AA2               	incf	___awdiv@dividend,f
  1120  0F30  1903               	skipnz
  1121  0F31  0AA3               	incf	___awdiv@dividend+1,f
  1122  0F32                     l1353:
  1123  0F32  3001               	movlw	1
  1124  0F33  00A4               	movwf	??___awdiv
  1125  0F34  0824               	movf	??___awdiv,w
  1126  0F35  06A6               	xorwf	___awdiv@sign,f
  1127  0F36                     l1355:
  1128  0F36  01A7               	clrf	___awdiv@quotient
  1129  0F37  01A8               	clrf	___awdiv@quotient+1
  1130  0F38                     l1357:
  1131  0F38  0820               	movf	___awdiv@divisor,w
  1132  0F39  0421               	iorwf	___awdiv@divisor+1,w
  1133  0F3A  1903               	btfsc	3,2
  1134  0F3B  2F3D               	goto	u1411
  1135  0F3C  2F3E               	goto	u1410
  1136  0F3D                     u1411:
  1137  0F3D  2F75               	goto	l1377
  1138  0F3E                     u1410:
  1139  0F3E                     l1359:
  1140  0F3E  01A5               	clrf	___awdiv@counter
  1141  0F3F  0AA5               	incf	___awdiv@counter,f
  1142  0F40  2F4C               	goto	l1365
  1143  0F41                     l1361:
  1144  0F41  3001               	movlw	1
  1145  0F42                     u1425:
  1146  0F42  1003               	clrc
  1147  0F43  0DA0               	rlf	___awdiv@divisor,f
  1148  0F44  0DA1               	rlf	___awdiv@divisor+1,f
  1149  0F45  3EFF               	addlw	-1
  1150  0F46  1D03               	skipz
  1151  0F47  2F42               	goto	u1425
  1152  0F48                     l1363:
  1153  0F48  3001               	movlw	1
  1154  0F49  00A4               	movwf	??___awdiv
  1155  0F4A  0824               	movf	??___awdiv,w
  1156  0F4B  07A5               	addwf	___awdiv@counter,f
  1157  0F4C                     l1365:
  1158  0F4C  1FA1               	btfss	___awdiv@divisor+1,7
  1159  0F4D  2F4F               	goto	u1431
  1160  0F4E  2F50               	goto	u1430
  1161  0F4F                     u1431:
  1162  0F4F  2F41               	goto	l1361
  1163  0F50                     u1430:
  1164  0F50                     l1367:
  1165  0F50  3001               	movlw	1
  1166  0F51                     u1445:
  1167  0F51  1003               	clrc
  1168  0F52  0DA7               	rlf	___awdiv@quotient,f
  1169  0F53  0DA8               	rlf	___awdiv@quotient+1,f
  1170  0F54  3EFF               	addlw	-1
  1171  0F55  1D03               	skipz
  1172  0F56  2F51               	goto	u1445
  1173  0F57  0821               	movf	___awdiv@divisor+1,w
  1174  0F58  0223               	subwf	___awdiv@dividend+1,w
  1175  0F59  1D03               	skipz
  1176  0F5A  2F5D               	goto	u1455
  1177  0F5B  0820               	movf	___awdiv@divisor,w
  1178  0F5C  0222               	subwf	___awdiv@dividend,w
  1179  0F5D                     u1455:
  1180  0F5D  1C03               	skipc
  1181  0F5E  2F60               	goto	u1451
  1182  0F5F  2F61               	goto	u1450
  1183  0F60                     u1451:
  1184  0F60  2F68               	goto	l1373
  1185  0F61                     u1450:
  1186  0F61                     l1369:
  1187  0F61  0820               	movf	___awdiv@divisor,w
  1188  0F62  02A2               	subwf	___awdiv@dividend,f
  1189  0F63  0821               	movf	___awdiv@divisor+1,w
  1190  0F64  1C03               	skipc
  1191  0F65  03A3               	decf	___awdiv@dividend+1,f
  1192  0F66  02A3               	subwf	___awdiv@dividend+1,f
  1193  0F67                     l1371:
  1194  0F67  1427               	bsf	___awdiv@quotient,0
  1195  0F68                     l1373:
  1196  0F68  3001               	movlw	1
  1197  0F69                     u1465:
  1198  0F69  1003               	clrc
  1199  0F6A  0CA1               	rrf	___awdiv@divisor+1,f
  1200  0F6B  0CA0               	rrf	___awdiv@divisor,f
  1201  0F6C  3EFF               	addlw	-1
  1202  0F6D  1D03               	skipz
  1203  0F6E  2F69               	goto	u1465
  1204  0F6F                     l1375:
  1205  0F6F  3001               	movlw	1
  1206  0F70  02A5               	subwf	___awdiv@counter,f
  1207  0F71  1D03               	btfss	3,2
  1208  0F72  2F74               	goto	u1471
  1209  0F73  2F75               	goto	u1470
  1210  0F74                     u1471:
  1211  0F74  2F50               	goto	l1367
  1212  0F75                     u1470:
  1213  0F75                     l1377:
  1214  0F75  0826               	movf	___awdiv@sign,w
  1215  0F76  1903               	btfsc	3,2
  1216  0F77  2F79               	goto	u1481
  1217  0F78  2F7A               	goto	u1480
  1218  0F79                     u1481:
  1219  0F79  2F7F               	goto	l1381
  1220  0F7A                     u1480:
  1221  0F7A                     l1379:
  1222  0F7A  09A7               	comf	___awdiv@quotient,f
  1223  0F7B  09A8               	comf	___awdiv@quotient+1,f
  1224  0F7C  0AA7               	incf	___awdiv@quotient,f
  1225  0F7D  1903               	skipnz
  1226  0F7E  0AA8               	incf	___awdiv@quotient+1,f
  1227  0F7F                     l1381:
  1228  0F7F  0828               	movf	___awdiv@quotient+1,w
  1229  0F80  00A1               	movwf	?___awdiv+1
  1230  0F81  0827               	movf	___awdiv@quotient,w
  1231  0F82  00A0               	movwf	?___awdiv
  1232  0F83                     l318:
  1233  0F83  0008               	return
  1234  0F84                     __end_of___awdiv:
  1235                           
  1236                           	psect	text4
  1237  0E43                     __ptext4:	
  1238 ;; *************** function _mapToCelsius *****************
  1239 ;; Defined at:
  1240 ;;		line 43 in file "main.c"
  1241 ;; Parameters:    Size  Location     Type
  1242 ;;  value           4   55[BANK0 ] float 
  1243 ;; Auto vars:     Size  Location     Type
  1244 ;;		None
  1245 ;; Return value:  Size  Location     Type
  1246 ;;                  4   55[BANK0 ] float 
  1247 ;; Registers used:
  1248 ;;		wreg, status,2, status,0, btemp+1, pclath, cstack
  1249 ;; Tracked objects:
  1250 ;;		On entry : 0/0
  1251 ;;		On exit  : 0/0
  1252 ;;		Unchanged: 0/0
  1253 ;; Data sizes:     COMMON   BANK0   BANK1   BANK3   BANK2
  1254 ;;      Params:         0       4       0       0       0
  1255 ;;      Locals:         0       0       0       0       0
  1256 ;;      Temps:          0       0       0       0       0
  1257 ;;      Totals:         0       4       0       0       0
  1258 ;;Total ram usage:        4 bytes
  1259 ;; Hardware stack levels used: 1
  1260 ;; Hardware stack levels required when called: 3
  1261 ;; This function calls:
  1262 ;;		___fladd
  1263 ;;		___flmul
  1264 ;; This function is called by:
  1265 ;;		_main
  1266 ;; This function uses a non-reentrant model
  1267 ;;
  1268                           
  1269                           
  1270                           ;psect for function _mapToCelsius
  1271  0E43                     _mapToCelsius:
  1272  0E43                     l1757:	
  1273                           ;incstack = 0
  1274                           ; Regs used in _mapToCelsius: [wreg+status,2+status,0+btemp+1+pclath+cstack]
  1275                           
  1276                           
  1277                           ;main.c: 44: 
  1278  0E43  30C2               	movlw	194
  1279  0E44  1283               	bcf	3,5	;RP0=0, select bank0
  1280  0E45  1303               	bcf	3,6	;RP1=0, select bank0
  1281  0E46  00C6               	movwf	___fladd@b+3
  1282  0E47  305C               	movlw	92
  1283  0E48  00C5               	movwf	___fladd@b+2
  1284  0E49  3000               	movlw	0
  1285  0E4A  00C4               	movwf	___fladd@b+1
  1286  0E4B  3000               	movlw	0
  1287  0E4C  00C3               	movwf	___fladd@b
  1288  0E4D  303F               	movlw	63
  1289  0E4E  00AC               	movwf	___flmul@b+3
  1290  0E4F  304D               	movlw	77
  1291  0E50  00AB               	movwf	___flmul@b+2
  1292  0E51  30CD               	movlw	205
  1293  0E52  00AA               	movwf	___flmul@b+1
  1294  0E53  30CE               	movlw	206
  1295  0E54  00A9               	movwf	___flmul@b
  1296  0E55  085A               	movf	mapToCelsius@value+3,w
  1297  0E56  00B0               	movwf	___flmul@a+3
  1298  0E57  0859               	movf	mapToCelsius@value+2,w
  1299  0E58  00AF               	movwf	___flmul@a+2
  1300  0E59  0858               	movf	mapToCelsius@value+1,w
  1301  0E5A  00AE               	movwf	___flmul@a+1
  1302  0E5B  0857               	movf	mapToCelsius@value,w
  1303  0E5C  00AD               	movwf	___flmul@a
  1304  0E5D  120A  118A  202F  120A  158A  	fcall	___flmul
  1305  0E62  1283               	bcf	3,5	;RP0=0, select bank0
  1306  0E63  1303               	bcf	3,6	;RP1=0, select bank0
  1307  0E64  082C               	movf	?___flmul+3,w
  1308  0E65  00CA               	movwf	___fladd@a+3
  1309  0E66  082B               	movf	?___flmul+2,w
  1310  0E67  00C9               	movwf	___fladd@a+2
  1311  0E68  082A               	movf	?___flmul+1,w
  1312  0E69  00C8               	movwf	___fladd@a+1
  1313  0E6A  0829               	movf	?___flmul,w
  1314  0E6B  00C7               	movwf	___fladd@a
  1315  0E6C  120A  118A  2390  120A  158A  	fcall	___fladd
  1316  0E71  1283               	bcf	3,5	;RP0=0, select bank0
  1317  0E72  1303               	bcf	3,6	;RP1=0, select bank0
  1318  0E73  0846               	movf	?___fladd+3,w
  1319  0E74  00DA               	movwf	?_mapToCelsius+3
  1320  0E75  0845               	movf	?___fladd+2,w
  1321  0E76  00D9               	movwf	?_mapToCelsius+2
  1322  0E77  0844               	movf	?___fladd+1,w
  1323  0E78  00D8               	movwf	?_mapToCelsius+1
  1324  0E79  0843               	movf	?___fladd,w
  1325  0E7A  00D7               	movwf	?_mapToCelsius
  1326  0E7B                     l43:
  1327  0E7B  0008               	return
  1328  0E7C                     __end_of_mapToCelsius:
  1329                           
  1330                           	psect	text5
  1331  002F                     __ptext5:	
  1332 ;; *************** function ___flmul *****************
  1333 ;; Defined at:
  1334 ;;		line 8 in file "C:\Program Files\Microchip\xc8\v2.32\pic\sources\c90\common\sprcmul.c"
  1335 ;; Parameters:    Size  Location     Type
  1336 ;;  b               4    9[BANK0 ] float 
  1337 ;;  a               4   13[BANK0 ] float 
  1338 ;; Auto vars:     Size  Location     Type
  1339 ;;  prod            4   29[BANK0 ] struct .
  1340 ;;  grs             4   23[BANK0 ] unsigned long 
  1341 ;;  temp            2   33[BANK0 ] struct .
  1342 ;;  bexp            1   28[BANK0 ] unsigned char 
  1343 ;;  aexp            1   27[BANK0 ] unsigned char 
  1344 ;;  sign            1   22[BANK0 ] unsigned char 
  1345 ;; Return value:  Size  Location     Type
  1346 ;;                  4    9[BANK0 ] unsigned char 
  1347 ;; Registers used:
  1348 ;;		wreg, status,2, status,0, btemp+1, pclath, cstack
  1349 ;; Tracked objects:
  1350 ;;		On entry : 0/0
  1351 ;;		On exit  : 0/0
  1352 ;;		Unchanged: 0/0
  1353 ;; Data sizes:     COMMON   BANK0   BANK1   BANK3   BANK2
  1354 ;;      Params:         0       8       0       0       0
  1355 ;;      Locals:         0      13       0       0       0
  1356 ;;      Temps:          0       5       0       0       0
  1357 ;;      Totals:         0      26       0       0       0
  1358 ;;Total ram usage:       26 bytes
  1359 ;; Hardware stack levels used: 1
  1360 ;; Hardware stack levels required when called: 2
  1361 ;; This function calls:
  1362 ;;		__Umul8_16
  1363 ;; This function is called by:
  1364 ;;		_mapToCelsius
  1365 ;; This function uses a non-reentrant model
  1366 ;;
  1367                           
  1368                           
  1369                           ;psect for function ___flmul
  1370  002F                     ___flmul:
  1371  002F                     l1617:	
  1372                           ;incstack = 0
  1373                           ; Regs used in ___flmul: [wreg+status,2+status,0+btemp+1+pclath+cstack]
  1374                           
  1375  002F  1283               	bcf	3,5	;RP0=0, select bank0
  1376  0030  1303               	bcf	3,6	;RP1=0, select bank0
  1377  0031  082C               	movf	___flmul@b+3,w
  1378  0032  3980               	andlw	128
  1379  0033  00B1               	movwf	??___flmul
  1380  0034  0831               	movf	??___flmul,w
  1381  0035  00B6               	movwf	___flmul@sign
  1382  0036                     l1619:
  1383  0036  082C               	movf	___flmul@b+3,w
  1384  0037  00B1               	movwf	??___flmul
  1385  0038  0731               	addwf	??___flmul,w
  1386  0039  00B2               	movwf	??___flmul+1
  1387  003A  0832               	movf	??___flmul+1,w
  1388  003B  00BC               	movwf	___flmul@bexp
  1389  003C                     l1621:
  1390  003C  1FAB               	btfss	___flmul@b+2,7
  1391  003D  283F               	goto	u2041
  1392  003E  2840               	goto	u2040
  1393  003F                     u2041:
  1394  003F  2841               	goto	l1625
  1395  0040                     u2040:
  1396  0040                     l1623:
  1397  0040  143C               	bsf	___flmul@bexp,0
  1398  0041                     l1625:
  1399  0041  083C               	movf	___flmul@bexp,w
  1400  0042  1903               	btfsc	3,2
  1401  0043  2845               	goto	u2051
  1402  0044  2846               	goto	u2050
  1403  0045                     u2051:
  1404  0045  2855               	goto	l1633
  1405  0046                     u2050:
  1406  0046                     l1627:
  1407  0046  0A3C               	incf	___flmul@bexp,w
  1408  0047  1D03               	btfss	3,2
  1409  0048  284A               	goto	u2061
  1410  0049  284B               	goto	u2060
  1411  004A                     u2061:
  1412  004A  2853               	goto	l1631
  1413  004B                     u2060:
  1414  004B                     l1629:
  1415  004B  3000               	movlw	0
  1416  004C  00AC               	movwf	___flmul@b+3
  1417  004D  3000               	movlw	0
  1418  004E  00AB               	movwf	___flmul@b+2
  1419  004F  3000               	movlw	0
  1420  0050  00AA               	movwf	___flmul@b+1
  1421  0051  3000               	movlw	0
  1422  0052  00A9               	movwf	___flmul@b
  1423  0053                     l1631:
  1424  0053  17AB               	bsf	___flmul@b+2,7
  1425  0054  285D               	goto	l1635
  1426  0055                     l1633:
  1427  0055  3000               	movlw	0
  1428  0056  00AC               	movwf	___flmul@b+3
  1429  0057  3000               	movlw	0
  1430  0058  00AB               	movwf	___flmul@b+2
  1431  0059  3000               	movlw	0
  1432  005A  00AA               	movwf	___flmul@b+1
  1433  005B  3000               	movlw	0
  1434  005C  00A9               	movwf	___flmul@b
  1435  005D                     l1635:
  1436  005D  0830               	movf	___flmul@a+3,w
  1437  005E  3980               	andlw	128
  1438  005F  00B1               	movwf	??___flmul
  1439  0060  0831               	movf	??___flmul,w
  1440  0061  06B6               	xorwf	___flmul@sign,f
  1441  0062                     l1637:
  1442  0062  0830               	movf	___flmul@a+3,w
  1443  0063  00B1               	movwf	??___flmul
  1444  0064  0731               	addwf	??___flmul,w
  1445  0065  00B2               	movwf	??___flmul+1
  1446  0066  0832               	movf	??___flmul+1,w
  1447  0067  00BB               	movwf	___flmul@aexp
  1448  0068                     l1639:
  1449  0068  1FAF               	btfss	___flmul@a+2,7
  1450  0069  286B               	goto	u2071
  1451  006A  286C               	goto	u2070
  1452  006B                     u2071:
  1453  006B  286D               	goto	l1643
  1454  006C                     u2070:
  1455  006C                     l1641:
  1456  006C  143B               	bsf	___flmul@aexp,0
  1457  006D                     l1643:
  1458  006D  083B               	movf	___flmul@aexp,w
  1459  006E  1903               	btfsc	3,2
  1460  006F  2871               	goto	u2081
  1461  0070  2872               	goto	u2080
  1462  0071                     u2081:
  1463  0071  2881               	goto	l1651
  1464  0072                     u2080:
  1465  0072                     l1645:
  1466  0072  0A3B               	incf	___flmul@aexp,w
  1467  0073  1D03               	btfss	3,2
  1468  0074  2876               	goto	u2091
  1469  0075  2877               	goto	u2090
  1470  0076                     u2091:
  1471  0076  287F               	goto	l1649
  1472  0077                     u2090:
  1473  0077                     l1647:
  1474  0077  3000               	movlw	0
  1475  0078  00B0               	movwf	___flmul@a+3
  1476  0079  3000               	movlw	0
  1477  007A  00AF               	movwf	___flmul@a+2
  1478  007B  3000               	movlw	0
  1479  007C  00AE               	movwf	___flmul@a+1
  1480  007D  3000               	movlw	0
  1481  007E  00AD               	movwf	___flmul@a
  1482  007F                     l1649:
  1483  007F  17AF               	bsf	___flmul@a+2,7
  1484  0080  2889               	goto	l1653
  1485  0081                     l1651:
  1486  0081  3000               	movlw	0
  1487  0082  00B0               	movwf	___flmul@a+3
  1488  0083  3000               	movlw	0
  1489  0084  00AF               	movwf	___flmul@a+2
  1490  0085  3000               	movlw	0
  1491  0086  00AE               	movwf	___flmul@a+1
  1492  0087  3000               	movlw	0
  1493  0088  00AD               	movwf	___flmul@a
  1494  0089                     l1653:
  1495  0089  083B               	movf	___flmul@aexp,w
  1496  008A  1903               	btfsc	3,2
  1497  008B  288D               	goto	u2101
  1498  008C  288E               	goto	u2100
  1499  008D                     u2101:
  1500  008D  2893               	goto	l1657
  1501  008E                     u2100:
  1502  008E                     l1655:
  1503  008E  083C               	movf	___flmul@bexp,w
  1504  008F  1D03               	btfss	3,2
  1505  0090  2892               	goto	u2111
  1506  0091  2893               	goto	u2110
  1507  0092                     u2111:
  1508  0092  289C               	goto	l1661
  1509  0093                     u2110:
  1510  0093                     l1657:
  1511  0093  3000               	movlw	0
  1512  0094  00AC               	movwf	?___flmul+3
  1513  0095  3000               	movlw	0
  1514  0096  00AB               	movwf	?___flmul+2
  1515  0097  3000               	movlw	0
  1516  0098  00AA               	movwf	?___flmul+1
  1517  0099  3000               	movlw	0
  1518  009A  00A9               	movwf	?___flmul
  1519  009B  2B8F               	goto	l554
  1520  009C                     l1661:
  1521  009C  0829               	movf	___flmul@b,w
  1522  009D  00B1               	movwf	??___flmul
  1523  009E  0831               	movf	??___flmul,w
  1524  009F  00A0               	movwf	__Umul8_16@multiplicand
  1525  00A0  082F               	movf	___flmul@a+2,w
  1526  00A1  120A  158A  261A  120A  118A  	fcall	__Umul8_16
  1527  00A6  1283               	bcf	3,5	;RP0=0, select bank0
  1528  00A7  1303               	bcf	3,6	;RP1=0, select bank0
  1529  00A8  0821               	movf	?__Umul8_16+1,w
  1530  00A9  00C2               	movwf	___flmul@temp+1
  1531  00AA  0820               	movf	?__Umul8_16,w
  1532  00AB  00C1               	movwf	___flmul@temp
  1533  00AC                     l1663:
  1534  00AC  0841               	movf	___flmul@temp,w
  1535  00AD  00B1               	movwf	??___flmul
  1536  00AE  01B2               	clrf	??___flmul+1
  1537  00AF  01B3               	clrf	??___flmul+2
  1538  00B0  01B4               	clrf	??___flmul+3
  1539  00B1  0834               	movf	??___flmul+3,w
  1540  00B2  00BA               	movwf	___flmul@grs+3
  1541  00B3  0833               	movf	??___flmul+2,w
  1542  00B4  00B9               	movwf	___flmul@grs+2
  1543  00B5  0832               	movf	??___flmul+1,w
  1544  00B6  00B8               	movwf	___flmul@grs+1
  1545  00B7  0831               	movf	??___flmul,w
  1546  00B8  00B7               	movwf	___flmul@grs
  1547  00B9                     l1665:
  1548  00B9  0842               	movf	___flmul@temp+1,w
  1549  00BA  00B1               	movwf	??___flmul
  1550  00BB  01B2               	clrf	??___flmul+1
  1551  00BC  01B3               	clrf	??___flmul+2
  1552  00BD  01B4               	clrf	??___flmul+3
  1553  00BE  0834               	movf	??___flmul+3,w
  1554  00BF  00C0               	movwf	___flmul@prod+3
  1555  00C0  0833               	movf	??___flmul+2,w
  1556  00C1  00BF               	movwf	___flmul@prod+2
  1557  00C2  0832               	movf	??___flmul+1,w
  1558  00C3  00BE               	movwf	___flmul@prod+1
  1559  00C4  0831               	movf	??___flmul,w
  1560  00C5  00BD               	movwf	___flmul@prod
  1561  00C6  082A               	movf	___flmul@b+1,w
  1562  00C7  00B1               	movwf	??___flmul
  1563  00C8  0831               	movf	??___flmul,w
  1564  00C9  00A0               	movwf	__Umul8_16@multiplicand
  1565  00CA  082E               	movf	___flmul@a+1,w
  1566  00CB  120A  158A  261A  120A  118A  	fcall	__Umul8_16
  1567  00D0  1283               	bcf	3,5	;RP0=0, select bank0
  1568  00D1  1303               	bcf	3,6	;RP1=0, select bank0
  1569  00D2  0821               	movf	?__Umul8_16+1,w
  1570  00D3  00C2               	movwf	___flmul@temp+1
  1571  00D4  0820               	movf	?__Umul8_16,w
  1572  00D5  00C1               	movwf	___flmul@temp
  1573  00D6                     l1667:
  1574  00D6  0841               	movf	___flmul@temp,w
  1575  00D7  00B1               	movwf	??___flmul
  1576  00D8  01B2               	clrf	??___flmul+1
  1577  00D9  01B3               	clrf	??___flmul+2
  1578  00DA  01B4               	clrf	??___flmul+3
  1579  00DB  0831               	movf	??___flmul,w
  1580  00DC  07B7               	addwf	___flmul@grs,f
  1581  00DD  0832               	movf	??___flmul+1,w
  1582  00DE  1103               	clrz
  1583  00DF  1803               	skipnc
  1584  00E0  3E01               	addlw	1
  1585  00E1  1903               	skipnz
  1586  00E2  28E4               	goto	u2121
  1587  00E3  07B8               	addwf	___flmul@grs+1,f
  1588  00E4                     u2121:
  1589  00E4  0833               	movf	??___flmul+2,w
  1590  00E5  1103               	clrz
  1591  00E6  1803               	skipnc
  1592  00E7  3E01               	addlw	1
  1593  00E8  1903               	skipnz
  1594  00E9  28EB               	goto	u2122
  1595  00EA  07B9               	addwf	___flmul@grs+2,f
  1596  00EB                     u2122:
  1597  00EB  0834               	movf	??___flmul+3,w
  1598  00EC  1103               	clrz
  1599  00ED  1803               	skipnc
  1600  00EE  3E01               	addlw	1
  1601  00EF  1903               	skipnz
  1602  00F0  28F2               	goto	u2123
  1603  00F1  07BA               	addwf	___flmul@grs+3,f
  1604  00F2                     u2123:
  1605  00F2                     l1669:
  1606  00F2  0842               	movf	___flmul@temp+1,w
  1607  00F3  00B1               	movwf	??___flmul
  1608  00F4  01B2               	clrf	??___flmul+1
  1609  00F5  01B3               	clrf	??___flmul+2
  1610  00F6  01B4               	clrf	??___flmul+3
  1611  00F7  0831               	movf	??___flmul,w
  1612  00F8  07BD               	addwf	___flmul@prod,f
  1613  00F9  0832               	movf	??___flmul+1,w
  1614  00FA  1103               	clrz
  1615  00FB  1803               	skipnc
  1616  00FC  3E01               	addlw	1
  1617  00FD  1903               	skipnz
  1618  00FE  2900               	goto	u2131
  1619  00FF  07BE               	addwf	___flmul@prod+1,f
  1620  0100                     u2131:
  1621  0100  0833               	movf	??___flmul+2,w
  1622  0101  1103               	clrz
  1623  0102  1803               	skipnc
  1624  0103  3E01               	addlw	1
  1625  0104  1903               	skipnz
  1626  0105  2907               	goto	u2132
  1627  0106  07BF               	addwf	___flmul@prod+2,f
  1628  0107                     u2132:
  1629  0107  0834               	movf	??___flmul+3,w
  1630  0108  1103               	clrz
  1631  0109  1803               	skipnc
  1632  010A  3E01               	addlw	1
  1633  010B  1903               	skipnz
  1634  010C  290E               	goto	u2133
  1635  010D  07C0               	addwf	___flmul@prod+3,f
  1636  010E                     u2133:
  1637  010E  082B               	movf	___flmul@b+2,w
  1638  010F  00B1               	movwf	??___flmul
  1639  0110  0831               	movf	??___flmul,w
  1640  0111  00A0               	movwf	__Umul8_16@multiplicand
  1641  0112  082D               	movf	___flmul@a,w
  1642  0113  120A  158A  261A  120A  118A  	fcall	__Umul8_16
  1643  0118  1283               	bcf	3,5	;RP0=0, select bank0
  1644  0119  1303               	bcf	3,6	;RP1=0, select bank0
  1645  011A  0821               	movf	?__Umul8_16+1,w
  1646  011B  00C2               	movwf	___flmul@temp+1
  1647  011C  0820               	movf	?__Umul8_16,w
  1648  011D  00C1               	movwf	___flmul@temp
  1649  011E                     l1671:
  1650  011E  0841               	movf	___flmul@temp,w
  1651  011F  00B1               	movwf	??___flmul
  1652  0120  01B2               	clrf	??___flmul+1
  1653  0121  01B3               	clrf	??___flmul+2
  1654  0122  01B4               	clrf	??___flmul+3
  1655  0123  0831               	movf	??___flmul,w
  1656  0124  07B7               	addwf	___flmul@grs,f
  1657  0125  0832               	movf	??___flmul+1,w
  1658  0126  1103               	clrz
  1659  0127  1803               	skipnc
  1660  0128  3E01               	addlw	1
  1661  0129  1903               	skipnz
  1662  012A  292C               	goto	u2141
  1663  012B  07B8               	addwf	___flmul@grs+1,f
  1664  012C                     u2141:
  1665  012C  0833               	movf	??___flmul+2,w
  1666  012D  1103               	clrz
  1667  012E  1803               	skipnc
  1668  012F  3E01               	addlw	1
  1669  0130  1903               	skipnz
  1670  0131  2933               	goto	u2142
  1671  0132  07B9               	addwf	___flmul@grs+2,f
  1672  0133                     u2142:
  1673  0133  0834               	movf	??___flmul+3,w
  1674  0134  1103               	clrz
  1675  0135  1803               	skipnc
  1676  0136  3E01               	addlw	1
  1677  0137  1903               	skipnz
  1678  0138  293A               	goto	u2143
  1679  0139  07BA               	addwf	___flmul@grs+3,f
  1680  013A                     u2143:
  1681  013A                     l1673:
  1682  013A  0842               	movf	___flmul@temp+1,w
  1683  013B  00B1               	movwf	??___flmul
  1684  013C  01B2               	clrf	??___flmul+1
  1685  013D  01B3               	clrf	??___flmul+2
  1686  013E  01B4               	clrf	??___flmul+3
  1687  013F  0831               	movf	??___flmul,w
  1688  0140  07BD               	addwf	___flmul@prod,f
  1689  0141  0832               	movf	??___flmul+1,w
  1690  0142  1103               	clrz
  1691  0143  1803               	skipnc
  1692  0144  3E01               	addlw	1
  1693  0145  1903               	skipnz
  1694  0146  2948               	goto	u2151
  1695  0147  07BE               	addwf	___flmul@prod+1,f
  1696  0148                     u2151:
  1697  0148  0833               	movf	??___flmul+2,w
  1698  0149  1103               	clrz
  1699  014A  1803               	skipnc
  1700  014B  3E01               	addlw	1
  1701  014C  1903               	skipnz
  1702  014D  294F               	goto	u2152
  1703  014E  07BF               	addwf	___flmul@prod+2,f
  1704  014F                     u2152:
  1705  014F  0834               	movf	??___flmul+3,w
  1706  0150  1103               	clrz
  1707  0151  1803               	skipnc
  1708  0152  3E01               	addlw	1
  1709  0153  1903               	skipnz
  1710  0154  2956               	goto	u2153
  1711  0155  07C0               	addwf	___flmul@prod+3,f
  1712  0156                     u2153:
  1713  0156                     l1675:
  1714  0156  3008               	movlw	8
  1715  0157  00B1               	movwf	??___flmul
  1716  0158                     u2165:
  1717  0158  1003               	clrc
  1718  0159  0DB7               	rlf	___flmul@grs,f
  1719  015A  0DB8               	rlf	___flmul@grs+1,f
  1720  015B  0DB9               	rlf	___flmul@grs+2,f
  1721  015C  0DBA               	rlf	___flmul@grs+3,f
  1722  015D  0BB1               	decfsz	??___flmul,f
  1723  015E  2958               	goto	u2165
  1724  015F                     l1677:
  1725  015F  082A               	movf	___flmul@b+1,w
  1726  0160  00B1               	movwf	??___flmul
  1727  0161  0831               	movf	??___flmul,w
  1728  0162  00A0               	movwf	__Umul8_16@multiplicand
  1729  0163  082D               	movf	___flmul@a,w
  1730  0164  120A  158A  261A  120A  118A  	fcall	__Umul8_16
  1731  0169  1283               	bcf	3,5	;RP0=0, select bank0
  1732  016A  1303               	bcf	3,6	;RP1=0, select bank0
  1733  016B  0821               	movf	?__Umul8_16+1,w
  1734  016C  00C2               	movwf	___flmul@temp+1
  1735  016D  0820               	movf	?__Umul8_16,w
  1736  016E  00C1               	movwf	___flmul@temp
  1737  016F                     l1679:
  1738  016F  0841               	movf	___flmul@temp,w
  1739  0170  00B1               	movwf	??___flmul
  1740  0171  0842               	movf	___flmul@temp+1,w
  1741  0172  00B2               	movwf	??___flmul+1
  1742  0173  01B3               	clrf	??___flmul+2
  1743  0174  01B4               	clrf	??___flmul+3
  1744  0175  0831               	movf	??___flmul,w
  1745  0176  07B7               	addwf	___flmul@grs,f
  1746  0177  0832               	movf	??___flmul+1,w
  1747  0178  1103               	clrz
  1748  0179  1803               	skipnc
  1749  017A  3E01               	addlw	1
  1750  017B  1903               	skipnz
  1751  017C  297E               	goto	u2171
  1752  017D  07B8               	addwf	___flmul@grs+1,f
  1753  017E                     u2171:
  1754  017E  0833               	movf	??___flmul+2,w
  1755  017F  1103               	clrz
  1756  0180  1803               	skipnc
  1757  0181  3E01               	addlw	1
  1758  0182  1903               	skipnz
  1759  0183  2985               	goto	u2172
  1760  0184  07B9               	addwf	___flmul@grs+2,f
  1761  0185                     u2172:
  1762  0185  0834               	movf	??___flmul+3,w
  1763  0186  1103               	clrz
  1764  0187  1803               	skipnc
  1765  0188  3E01               	addlw	1
  1766  0189  1903               	skipnz
  1767  018A  298C               	goto	u2173
  1768  018B  07BA               	addwf	___flmul@grs+3,f
  1769  018C                     u2173:
  1770  018C                     l1681:
  1771  018C  0829               	movf	___flmul@b,w
  1772  018D  00B1               	movwf	??___flmul
  1773  018E  0831               	movf	??___flmul,w
  1774  018F  00A0               	movwf	__Umul8_16@multiplicand
  1775  0190  082E               	movf	___flmul@a+1,w
  1776  0191  120A  158A  261A  120A  118A  	fcall	__Umul8_16
  1777  0196  1283               	bcf	3,5	;RP0=0, select bank0
  1778  0197  1303               	bcf	3,6	;RP1=0, select bank0
  1779  0198  0821               	movf	?__Umul8_16+1,w
  1780  0199  00C2               	movwf	___flmul@temp+1
  1781  019A  0820               	movf	?__Umul8_16,w
  1782  019B  00C1               	movwf	___flmul@temp
  1783  019C                     l1683:
  1784  019C  0841               	movf	___flmul@temp,w
  1785  019D  00B1               	movwf	??___flmul
  1786  019E  0842               	movf	___flmul@temp+1,w
  1787  019F  00B2               	movwf	??___flmul+1
  1788  01A0  01B3               	clrf	??___flmul+2
  1789  01A1  01B4               	clrf	??___flmul+3
  1790  01A2  0831               	movf	??___flmul,w
  1791  01A3  07B7               	addwf	___flmul@grs,f
  1792  01A4  0832               	movf	??___flmul+1,w
  1793  01A5  1103               	clrz
  1794  01A6  1803               	skipnc
  1795  01A7  3E01               	addlw	1
  1796  01A8  1903               	skipnz
  1797  01A9  29AB               	goto	u2181
  1798  01AA  07B8               	addwf	___flmul@grs+1,f
  1799  01AB                     u2181:
  1800  01AB  0833               	movf	??___flmul+2,w
  1801  01AC  1103               	clrz
  1802  01AD  1803               	skipnc
  1803  01AE  3E01               	addlw	1
  1804  01AF  1903               	skipnz
  1805  01B0  29B2               	goto	u2182
  1806  01B1  07B9               	addwf	___flmul@grs+2,f
  1807  01B2                     u2182:
  1808  01B2  0834               	movf	??___flmul+3,w
  1809  01B3  1103               	clrz
  1810  01B4  1803               	skipnc
  1811  01B5  3E01               	addlw	1
  1812  01B6  1903               	skipnz
  1813  01B7  29B9               	goto	u2183
  1814  01B8  07BA               	addwf	___flmul@grs+3,f
  1815  01B9                     u2183:
  1816  01B9                     l1685:
  1817  01B9  3008               	movlw	8
  1818  01BA  00B1               	movwf	??___flmul
  1819  01BB                     u2195:
  1820  01BB  1003               	clrc
  1821  01BC  0DB7               	rlf	___flmul@grs,f
  1822  01BD  0DB8               	rlf	___flmul@grs+1,f
  1823  01BE  0DB9               	rlf	___flmul@grs+2,f
  1824  01BF  0DBA               	rlf	___flmul@grs+3,f
  1825  01C0  0BB1               	decfsz	??___flmul,f
  1826  01C1  29BB               	goto	u2195
  1827  01C2  0829               	movf	___flmul@b,w
  1828  01C3  00B1               	movwf	??___flmul
  1829  01C4  0831               	movf	??___flmul,w
  1830  01C5  00A0               	movwf	__Umul8_16@multiplicand
  1831  01C6  082D               	movf	___flmul@a,w
  1832  01C7  120A  158A  261A  120A  118A  	fcall	__Umul8_16
  1833  01CC  1283               	bcf	3,5	;RP0=0, select bank0
  1834  01CD  1303               	bcf	3,6	;RP1=0, select bank0
  1835  01CE  0821               	movf	?__Umul8_16+1,w
  1836  01CF  00C2               	movwf	___flmul@temp+1
  1837  01D0  0820               	movf	?__Umul8_16,w
  1838  01D1  00C1               	movwf	___flmul@temp
  1839  01D2                     l1687:
  1840  01D2  0841               	movf	___flmul@temp,w
  1841  01D3  00B1               	movwf	??___flmul
  1842  01D4  0842               	movf	___flmul@temp+1,w
  1843  01D5  00B2               	movwf	??___flmul+1
  1844  01D6  01B3               	clrf	??___flmul+2
  1845  01D7  01B4               	clrf	??___flmul+3
  1846  01D8  0831               	movf	??___flmul,w
  1847  01D9  07B7               	addwf	___flmul@grs,f
  1848  01DA  0832               	movf	??___flmul+1,w
  1849  01DB  1103               	clrz
  1850  01DC  1803               	skipnc
  1851  01DD  3E01               	addlw	1
  1852  01DE  1903               	skipnz
  1853  01DF  29E1               	goto	u2201
  1854  01E0  07B8               	addwf	___flmul@grs+1,f
  1855  01E1                     u2201:
  1856  01E1  0833               	movf	??___flmul+2,w
  1857  01E2  1103               	clrz
  1858  01E3  1803               	skipnc
  1859  01E4  3E01               	addlw	1
  1860  01E5  1903               	skipnz
  1861  01E6  29E8               	goto	u2202
  1862  01E7  07B9               	addwf	___flmul@grs+2,f
  1863  01E8                     u2202:
  1864  01E8  0834               	movf	??___flmul+3,w
  1865  01E9  1103               	clrz
  1866  01EA  1803               	skipnc
  1867  01EB  3E01               	addlw	1
  1868  01EC  1903               	skipnz
  1869  01ED  29EF               	goto	u2203
  1870  01EE  07BA               	addwf	___flmul@grs+3,f
  1871  01EF                     u2203:
  1872  01EF                     l1689:
  1873  01EF  082A               	movf	___flmul@b+1,w
  1874  01F0  00B1               	movwf	??___flmul
  1875  01F1  0831               	movf	??___flmul,w
  1876  01F2  00A0               	movwf	__Umul8_16@multiplicand
  1877  01F3  082F               	movf	___flmul@a+2,w
  1878  01F4  120A  158A  261A  120A  118A  	fcall	__Umul8_16
  1879  01F9  1283               	bcf	3,5	;RP0=0, select bank0
  1880  01FA  1303               	bcf	3,6	;RP1=0, select bank0
  1881  01FB  0821               	movf	?__Umul8_16+1,w
  1882  01FC  00C2               	movwf	___flmul@temp+1
  1883  01FD  0820               	movf	?__Umul8_16,w
  1884  01FE  00C1               	movwf	___flmul@temp
  1885  01FF  0841               	movf	___flmul@temp,w
  1886  0200  00B1               	movwf	??___flmul
  1887  0201  0842               	movf	___flmul@temp+1,w
  1888  0202  00B2               	movwf	??___flmul+1
  1889  0203  01B3               	clrf	??___flmul+2
  1890  0204  01B4               	clrf	??___flmul+3
  1891  0205  0831               	movf	??___flmul,w
  1892  0206  07BD               	addwf	___flmul@prod,f
  1893  0207  0832               	movf	??___flmul+1,w
  1894  0208  1103               	clrz
  1895  0209  1803               	skipnc
  1896  020A  3E01               	addlw	1
  1897  020B  1903               	skipnz
  1898  020C  2A0E               	goto	u2211
  1899  020D  07BE               	addwf	___flmul@prod+1,f
  1900  020E                     u2211:
  1901  020E  0833               	movf	??___flmul+2,w
  1902  020F  1103               	clrz
  1903  0210  1803               	skipnc
  1904  0211  3E01               	addlw	1
  1905  0212  1903               	skipnz
  1906  0213  2A15               	goto	u2212
  1907  0214  07BF               	addwf	___flmul@prod+2,f
  1908  0215                     u2212:
  1909  0215  0834               	movf	??___flmul+3,w
  1910  0216  1103               	clrz
  1911  0217  1803               	skipnc
  1912  0218  3E01               	addlw	1
  1913  0219  1903               	skipnz
  1914  021A  2A1C               	goto	u2213
  1915  021B  07C0               	addwf	___flmul@prod+3,f
  1916  021C                     u2213:
  1917  021C                     l1691:
  1918  021C  082B               	movf	___flmul@b+2,w
  1919  021D  00B1               	movwf	??___flmul
  1920  021E  0831               	movf	??___flmul,w
  1921  021F  00A0               	movwf	__Umul8_16@multiplicand
  1922  0220  082E               	movf	___flmul@a+1,w
  1923  0221  120A  158A  261A  120A  118A  	fcall	__Umul8_16
  1924  0226  1283               	bcf	3,5	;RP0=0, select bank0
  1925  0227  1303               	bcf	3,6	;RP1=0, select bank0
  1926  0228  0821               	movf	?__Umul8_16+1,w
  1927  0229  00C2               	movwf	___flmul@temp+1
  1928  022A  0820               	movf	?__Umul8_16,w
  1929  022B  00C1               	movwf	___flmul@temp
  1930  022C                     l1693:
  1931  022C  0841               	movf	___flmul@temp,w
  1932  022D  00B1               	movwf	??___flmul
  1933  022E  0842               	movf	___flmul@temp+1,w
  1934  022F  00B2               	movwf	??___flmul+1
  1935  0230  01B3               	clrf	??___flmul+2
  1936  0231  01B4               	clrf	??___flmul+3
  1937  0232  0831               	movf	??___flmul,w
  1938  0233  07BD               	addwf	___flmul@prod,f
  1939  0234  0832               	movf	??___flmul+1,w
  1940  0235  1103               	clrz
  1941  0236  1803               	skipnc
  1942  0237  3E01               	addlw	1
  1943  0238  1903               	skipnz
  1944  0239  2A3B               	goto	u2221
  1945  023A  07BE               	addwf	___flmul@prod+1,f
  1946  023B                     u2221:
  1947  023B  0833               	movf	??___flmul+2,w
  1948  023C  1103               	clrz
  1949  023D  1803               	skipnc
  1950  023E  3E01               	addlw	1
  1951  023F  1903               	skipnz
  1952  0240  2A42               	goto	u2222
  1953  0241  07BF               	addwf	___flmul@prod+2,f
  1954  0242                     u2222:
  1955  0242  0834               	movf	??___flmul+3,w
  1956  0243  1103               	clrz
  1957  0244  1803               	skipnc
  1958  0245  3E01               	addlw	1
  1959  0246  1903               	skipnz
  1960  0247  2A49               	goto	u2223
  1961  0248  07C0               	addwf	___flmul@prod+3,f
  1962  0249                     u2223:
  1963  0249  082B               	movf	___flmul@b+2,w
  1964  024A  00B1               	movwf	??___flmul
  1965  024B  0831               	movf	??___flmul,w
  1966  024C  00A0               	movwf	__Umul8_16@multiplicand
  1967  024D  082F               	movf	___flmul@a+2,w
  1968  024E  120A  158A  261A  120A  118A  	fcall	__Umul8_16
  1969  0253  1283               	bcf	3,5	;RP0=0, select bank0
  1970  0254  1303               	bcf	3,6	;RP1=0, select bank0
  1971  0255  0821               	movf	?__Umul8_16+1,w
  1972  0256  00C2               	movwf	___flmul@temp+1
  1973  0257  0820               	movf	?__Umul8_16,w
  1974  0258  00C1               	movwf	___flmul@temp
  1975  0259                     l1695:
  1976  0259  0841               	movf	___flmul@temp,w
  1977  025A  00B1               	movwf	??___flmul
  1978  025B  0842               	movf	___flmul@temp+1,w
  1979  025C  00B2               	movwf	??___flmul+1
  1980  025D  01B3               	clrf	??___flmul+2
  1981  025E  01B4               	clrf	??___flmul+3
  1982  025F  3008               	movlw	8
  1983  0260                     u2235:
  1984  0260  1003               	clrc
  1985  0261  0DB1               	rlf	??___flmul,f
  1986  0262  0DB2               	rlf	??___flmul+1,f
  1987  0263  0DB3               	rlf	??___flmul+2,f
  1988  0264  0DB4               	rlf	??___flmul+3,f
  1989  0265                     u2230:
  1990  0265  3EFF               	addlw	-1
  1991  0266  1D03               	skipz
  1992  0267  2A60               	goto	u2235
  1993  0268  0831               	movf	??___flmul,w
  1994  0269  07BD               	addwf	___flmul@prod,f
  1995  026A  0832               	movf	??___flmul+1,w
  1996  026B  1103               	clrz
  1997  026C  1803               	skipnc
  1998  026D  3E01               	addlw	1
  1999  026E  1903               	skipnz
  2000  026F  2A71               	goto	u2241
  2001  0270  07BE               	addwf	___flmul@prod+1,f
  2002  0271                     u2241:
  2003  0271  0833               	movf	??___flmul+2,w
  2004  0272  1103               	clrz
  2005  0273  1803               	skipnc
  2006  0274  3E01               	addlw	1
  2007  0275  1903               	skipnz
  2008  0276  2A78               	goto	u2242
  2009  0277  07BF               	addwf	___flmul@prod+2,f
  2010  0278                     u2242:
  2011  0278  0834               	movf	??___flmul+3,w
  2012  0279  1103               	clrz
  2013  027A  1803               	skipnc
  2014  027B  3E01               	addlw	1
  2015  027C  1903               	skipnz
  2016  027D  2A7F               	goto	u2243
  2017  027E  07C0               	addwf	___flmul@prod+3,f
  2018  027F                     u2243:
  2019  027F                     l1697:
  2020  027F  0837               	movf	___flmul@grs,w
  2021  0280  00B1               	movwf	??___flmul
  2022  0281  0838               	movf	___flmul@grs+1,w
  2023  0282  00B2               	movwf	??___flmul+1
  2024  0283  0839               	movf	___flmul@grs+2,w
  2025  0284  00B3               	movwf	??___flmul+2
  2026  0285  083A               	movf	___flmul@grs+3,w
  2027  0286  00B4               	movwf	??___flmul+3
  2028  0287  3018               	movlw	24
  2029  0288                     u2255:
  2030  0288  1003               	clrc
  2031  0289  0CB4               	rrf	??___flmul+3,f
  2032  028A  0CB3               	rrf	??___flmul+2,f
  2033  028B  0CB2               	rrf	??___flmul+1,f
  2034  028C  0CB1               	rrf	??___flmul,f
  2035  028D                     u2250:
  2036  028D  3EFF               	addlw	-1
  2037  028E  1D03               	skipz
  2038  028F  2A88               	goto	u2255
  2039  0290  0831               	movf	??___flmul,w
  2040  0291  07BD               	addwf	___flmul@prod,f
  2041  0292  0832               	movf	??___flmul+1,w
  2042  0293  1103               	clrz
  2043  0294  1803               	skipnc
  2044  0295  3E01               	addlw	1
  2045  0296  1903               	skipnz
  2046  0297  2A99               	goto	u2261
  2047  0298  07BE               	addwf	___flmul@prod+1,f
  2048  0299                     u2261:
  2049  0299  0833               	movf	??___flmul+2,w
  2050  029A  1103               	clrz
  2051  029B  1803               	skipnc
  2052  029C  3E01               	addlw	1
  2053  029D  1903               	skipnz
  2054  029E  2AA0               	goto	u2262
  2055  029F  07BF               	addwf	___flmul@prod+2,f
  2056  02A0                     u2262:
  2057  02A0  0834               	movf	??___flmul+3,w
  2058  02A1  1103               	clrz
  2059  02A2  1803               	skipnc
  2060  02A3  3E01               	addlw	1
  2061  02A4  1903               	skipnz
  2062  02A5  2AA7               	goto	u2263
  2063  02A6  07C0               	addwf	___flmul@prod+3,f
  2064  02A7                     u2263:
  2065  02A7                     l1699:
  2066  02A7  3008               	movlw	8
  2067  02A8  00B1               	movwf	??___flmul
  2068  02A9                     u2275:
  2069  02A9  1003               	clrc
  2070  02AA  0DB7               	rlf	___flmul@grs,f
  2071  02AB  0DB8               	rlf	___flmul@grs+1,f
  2072  02AC  0DB9               	rlf	___flmul@grs+2,f
  2073  02AD  0DBA               	rlf	___flmul@grs+3,f
  2074  02AE  0BB1               	decfsz	??___flmul,f
  2075  02AF  2AA9               	goto	u2275
  2076  02B0                     l1701:
  2077  02B0  083C               	movf	___flmul@bexp,w
  2078  02B1  073B               	addwf	___flmul@aexp,w
  2079  02B2  00B1               	movwf	??___flmul
  2080  02B3  01B2               	clrf	??___flmul+1
  2081  02B4  0DB2               	rlf	??___flmul+1,f
  2082  02B5  0831               	movf	??___flmul,w
  2083  02B6  3E82               	addlw	130
  2084  02B7  00C1               	movwf	___flmul@temp
  2085  02B8  0832               	movf	??___flmul+1,w
  2086  02B9  1803               	skipnc
  2087  02BA  3E01               	addlw	1
  2088  02BB  3EFF               	addlw	255
  2089  02BC  00C2               	movwf	___flmul@temp+1
  2090  02BD  2ADB               	goto	l1713
  2091  02BE                     l1703:
  2092  02BE  3001               	movlw	1
  2093  02BF  00B1               	movwf	??___flmul
  2094  02C0                     u2285:
  2095  02C0  1003               	clrc
  2096  02C1  0DBD               	rlf	___flmul@prod,f
  2097  02C2  0DBE               	rlf	___flmul@prod+1,f
  2098  02C3  0DBF               	rlf	___flmul@prod+2,f
  2099  02C4  0DC0               	rlf	___flmul@prod+3,f
  2100  02C5  0BB1               	decfsz	??___flmul,f
  2101  02C6  2AC0               	goto	u2285
  2102  02C7                     l1705:
  2103  02C7  1FBA               	btfss	___flmul@grs+3,7
  2104  02C8  2ACA               	goto	u2291
  2105  02C9  2ACB               	goto	u2290
  2106  02CA                     u2291:
  2107  02CA  2ACC               	goto	l1709
  2108  02CB                     u2290:
  2109  02CB                     l1707:
  2110  02CB  143D               	bsf	___flmul@prod,0
  2111  02CC                     l1709:
  2112  02CC  3001               	movlw	1
  2113  02CD  00B1               	movwf	??___flmul
  2114  02CE                     u2305:
  2115  02CE  1003               	clrc
  2116  02CF  0DB7               	rlf	___flmul@grs,f
  2117  02D0  0DB8               	rlf	___flmul@grs+1,f
  2118  02D1  0DB9               	rlf	___flmul@grs+2,f
  2119  02D2  0DBA               	rlf	___flmul@grs+3,f
  2120  02D3  0BB1               	decfsz	??___flmul,f
  2121  02D4  2ACE               	goto	u2305
  2122  02D5                     l1711:
  2123  02D5  30FF               	movlw	255
  2124  02D6  07C1               	addwf	___flmul@temp,f
  2125  02D7  1803               	skipnc
  2126  02D8  0AC2               	incf	___flmul@temp+1,f
  2127  02D9  30FF               	movlw	255
  2128  02DA  07C2               	addwf	___flmul@temp+1,f
  2129  02DB                     l1713:
  2130  02DB  1FBF               	btfss	___flmul@prod+2,7
  2131  02DC  2ADE               	goto	u2311
  2132  02DD  2ADF               	goto	u2310
  2133  02DE                     u2311:
  2134  02DE  2ABE               	goto	l1703
  2135  02DF                     u2310:
  2136  02DF                     l1715:
  2137  02DF  01BB               	clrf	___flmul@aexp
  2138  02E0                     l1717:
  2139  02E0  1FBA               	btfss	___flmul@grs+3,7
  2140  02E1  2AE3               	goto	u2321
  2141  02E2  2AE4               	goto	u2320
  2142  02E3                     u2321:
  2143  02E3  2B00               	goto	l1725
  2144  02E4                     u2320:
  2145  02E4                     l1719:
  2146  02E4  30FF               	movlw	255
  2147  02E5  0537               	andwf	___flmul@grs,w
  2148  02E6  00B1               	movwf	??___flmul
  2149  02E7  30FF               	movlw	255
  2150  02E8  0538               	andwf	___flmul@grs+1,w
  2151  02E9  00B2               	movwf	??___flmul+1
  2152  02EA  30FF               	movlw	255
  2153  02EB  0539               	andwf	___flmul@grs+2,w
  2154  02EC  00B3               	movwf	??___flmul+2
  2155  02ED  307F               	movlw	127
  2156  02EE  053A               	andwf	___flmul@grs+3,w
  2157  02EF  00B4               	movwf	??___flmul+3
  2158  02F0  0834               	movf	??___flmul+3,w
  2159  02F1  0433               	iorwf	??___flmul+2,w
  2160  02F2  0432               	iorwf	??___flmul+1,w
  2161  02F3  0431               	iorwf	??___flmul,w
  2162  02F4  1903               	skipnz
  2163  02F5  2AF7               	goto	u2331
  2164  02F6  2AF8               	goto	u2330
  2165  02F7                     u2331:
  2166  02F7  2AFB               	goto	l560
  2167  02F8                     u2330:
  2168  02F8                     l1721:
  2169  02F8  01BB               	clrf	___flmul@aexp
  2170  02F9  0ABB               	incf	___flmul@aexp,f
  2171  02FA  2B00               	goto	l1725
  2172  02FB                     l560:
  2173  02FB  1C3D               	btfss	___flmul@prod,0
  2174  02FC  2AFE               	goto	u2341
  2175  02FD  2AFF               	goto	u2340
  2176  02FE                     u2341:
  2177  02FE  2B00               	goto	l1725
  2178  02FF                     u2340:
  2179  02FF  2AF8               	goto	l1721
  2180  0300                     l1725:
  2181  0300  083B               	movf	___flmul@aexp,w
  2182  0301  1903               	btfsc	3,2
  2183  0302  2B04               	goto	u2351
  2184  0303  2B05               	goto	u2350
  2185  0304                     u2351:
  2186  0304  2B36               	goto	l1735
  2187  0305                     u2350:
  2188  0305                     l1727:
  2189  0305  3001               	movlw	1
  2190  0306  07BD               	addwf	___flmul@prod,f
  2191  0307  3000               	movlw	0
  2192  0308  1803               	skipnc
  2193  0309  3001               	movlw	1
  2194  030A  07BE               	addwf	___flmul@prod+1,f
  2195  030B  3000               	movlw	0
  2196  030C  1803               	skipnc
  2197  030D  3001               	movlw	1
  2198  030E  07BF               	addwf	___flmul@prod+2,f
  2199  030F  3000               	movlw	0
  2200  0310  1803               	skipnc
  2201  0311  3001               	movlw	1
  2202  0312  07C0               	addwf	___flmul@prod+3,f
  2203  0313                     l1729:
  2204  0313  1C40               	btfss	___flmul@prod+3,0
  2205  0314  2B16               	goto	u2361
  2206  0315  2B17               	goto	u2360
  2207  0316                     u2361:
  2208  0316  2B36               	goto	l1735
  2209  0317                     u2360:
  2210  0317                     l1731:
  2211  0317  083D               	movf	___flmul@prod,w
  2212  0318  00B1               	movwf	??___flmul
  2213  0319  083E               	movf	___flmul@prod+1,w
  2214  031A  00B2               	movwf	??___flmul+1
  2215  031B  083F               	movf	___flmul@prod+2,w
  2216  031C  00B3               	movwf	??___flmul+2
  2217  031D  0840               	movf	___flmul@prod+3,w
  2218  031E  00B4               	movwf	??___flmul+3
  2219  031F  3001               	movlw	1
  2220  0320  00B5               	movwf	??___flmul+4
  2221  0321                     u2375:
  2222  0321  0D34               	rlf	??___flmul+3,w
  2223  0322  0CB4               	rrf	??___flmul+3,f
  2224  0323  0CB3               	rrf	??___flmul+2,f
  2225  0324  0CB2               	rrf	??___flmul+1,f
  2226  0325  0CB1               	rrf	??___flmul,f
  2227  0326                     u2370:
  2228  0326  0BB5               	decfsz	??___flmul+4,f
  2229  0327  2B21               	goto	u2375
  2230  0328  0834               	movf	??___flmul+3,w
  2231  0329  00C0               	movwf	___flmul@prod+3
  2232  032A  0833               	movf	??___flmul+2,w
  2233  032B  00BF               	movwf	___flmul@prod+2
  2234  032C  0832               	movf	??___flmul+1,w
  2235  032D  00BE               	movwf	___flmul@prod+1
  2236  032E  0831               	movf	??___flmul,w
  2237  032F  00BD               	movwf	___flmul@prod
  2238  0330                     l1733:
  2239  0330  3001               	movlw	1
  2240  0331  07C1               	addwf	___flmul@temp,f
  2241  0332  1803               	skipnc
  2242  0333  0AC2               	incf	___flmul@temp+1,f
  2243  0334  3000               	movlw	0
  2244  0335  07C2               	addwf	___flmul@temp+1,f
  2245  0336                     l1735:
  2246  0336  0842               	movf	___flmul@temp+1,w
  2247  0337  3A80               	xorlw	128
  2248  0338  00FF               	movwf	btemp+1
  2249  0339  3080               	movlw	128
  2250  033A  027F               	subwf	btemp+1,w
  2251  033B  1D03               	skipz
  2252  033C  2B3F               	goto	u2385
  2253  033D  30FF               	movlw	255
  2254  033E  0241               	subwf	___flmul@temp,w
  2255  033F                     u2385:
  2256  033F  1C03               	skipc
  2257  0340  2B42               	goto	u2381
  2258  0341  2B43               	goto	u2380
  2259  0342                     u2381:
  2260  0342  2B4E               	goto	l1739
  2261  0343                     u2380:
  2262  0343                     l1737:
  2263  0343  307F               	movlw	127
  2264  0344  1283               	bcf	3,5	;RP0=0, select bank0
  2265  0345  1303               	bcf	3,6	;RP1=0, select bank0
  2266  0346  00C0               	movwf	___flmul@prod+3
  2267  0347  3080               	movlw	128
  2268  0348  00BF               	movwf	___flmul@prod+2
  2269  0349  3000               	movlw	0
  2270  034A  00BE               	movwf	___flmul@prod+1
  2271  034B  3000               	movlw	0
  2272  034C  00BD               	movwf	___flmul@prod
  2273  034D  2B83               	goto	l566
  2274  034E                     l1739:
  2275  034E  1283               	bcf	3,5	;RP0=0, select bank0
  2276  034F  1303               	bcf	3,6	;RP1=0, select bank0
  2277  0350  0842               	movf	___flmul@temp+1,w
  2278  0351  3A80               	xorlw	128
  2279  0352  00FF               	movwf	btemp+1
  2280  0353  3080               	movlw	128
  2281  0354  027F               	subwf	btemp+1,w
  2282  0355  1D03               	skipz
  2283  0356  2B59               	goto	u2395
  2284  0357  3001               	movlw	1
  2285  0358  0241               	subwf	___flmul@temp,w
  2286  0359                     u2395:
  2287  0359  1803               	skipnc
  2288  035A  2B5C               	goto	u2391
  2289  035B  2B5D               	goto	u2390
  2290  035C                     u2391:
  2291  035C  2B69               	goto	l1745
  2292  035D                     u2390:
  2293  035D                     l1741:
  2294  035D  3000               	movlw	0
  2295  035E  1283               	bcf	3,5	;RP0=0, select bank0
  2296  035F  1303               	bcf	3,6	;RP1=0, select bank0
  2297  0360  00C0               	movwf	___flmul@prod+3
  2298  0361  3000               	movlw	0
  2299  0362  00BF               	movwf	___flmul@prod+2
  2300  0363  3000               	movlw	0
  2301  0364  00BE               	movwf	___flmul@prod+1
  2302  0365  3000               	movlw	0
  2303  0366  00BD               	movwf	___flmul@prod
  2304  0367                     l1743:
  2305  0367  01B6               	clrf	___flmul@sign
  2306  0368  2B83               	goto	l566
  2307  0369                     l1745:
  2308  0369  1283               	bcf	3,5	;RP0=0, select bank0
  2309  036A  1303               	bcf	3,6	;RP1=0, select bank0
  2310  036B  0841               	movf	___flmul@temp,w
  2311  036C  00B1               	movwf	??___flmul
  2312  036D  0831               	movf	??___flmul,w
  2313  036E  00BC               	movwf	___flmul@bexp
  2314  036F  30FF               	movlw	255
  2315  0370  05BD               	andwf	___flmul@prod,f
  2316  0371  30FF               	movlw	255
  2317  0372  05BE               	andwf	___flmul@prod+1,f
  2318  0373  307F               	movlw	127
  2319  0374  05BF               	andwf	___flmul@prod+2,f
  2320  0375  3000               	movlw	0
  2321  0376  05C0               	andwf	___flmul@prod+3,f
  2322  0377                     l1747:
  2323  0377  1C3C               	btfss	___flmul@bexp,0
  2324  0378  2B7A               	goto	u2401
  2325  0379  2B7B               	goto	u2400
  2326  037A                     u2401:
  2327  037A  2B7C               	goto	l1751
  2328  037B                     u2400:
  2329  037B                     l1749:
  2330  037B  17BF               	bsf	___flmul@prod+2,7
  2331  037C                     l1751:
  2332  037C  083C               	movf	___flmul@bexp,w
  2333  037D  00B1               	movwf	??___flmul
  2334  037E  1003               	clrc
  2335  037F  0C31               	rrf	??___flmul,w
  2336  0380  00B2               	movwf	??___flmul+1
  2337  0381  0832               	movf	??___flmul+1,w
  2338  0382  00C0               	movwf	___flmul@prod+3
  2339  0383                     l566:
  2340  0383  0836               	movf	___flmul@sign,w
  2341  0384  00B1               	movwf	??___flmul
  2342  0385  0831               	movf	??___flmul,w
  2343  0386  04C0               	iorwf	___flmul@prod+3,f
  2344  0387                     l1753:
  2345  0387  0840               	movf	___flmul@prod+3,w
  2346  0388  00AC               	movwf	?___flmul+3
  2347  0389  083F               	movf	___flmul@prod+2,w
  2348  038A  00AB               	movwf	?___flmul+2
  2349  038B  083E               	movf	___flmul@prod+1,w
  2350  038C  00AA               	movwf	?___flmul+1
  2351  038D  083D               	movf	___flmul@prod,w
  2352  038E  00A9               	movwf	?___flmul
  2353  038F                     l554:
  2354  038F  0008               	return
  2355  0390                     __end_of___flmul:
  2356                           
  2357                           	psect	text6
  2358  0E1A                     __ptext6:	
  2359 ;; *************** function __Umul8_16 *****************
  2360 ;; Defined at:
  2361 ;;		line 4 in file "C:\Program Files\Microchip\xc8\v2.32\pic\sources\c90\common\Umul8_16.c"
  2362 ;; Parameters:    Size  Location     Type
  2363 ;;  multiplier      1    wreg     unsigned char 
  2364 ;;  multiplicand    1    0[BANK0 ] unsigned char 
  2365 ;; Auto vars:     Size  Location     Type
  2366 ;;  multiplier      1    8[BANK0 ] unsigned char 
  2367 ;;  word_mpld       2    6[BANK0 ] unsigned int 
  2368 ;;  product         2    4[BANK0 ] unsigned int 
  2369 ;; Return value:  Size  Location     Type
  2370 ;;                  2    0[BANK0 ] unsigned int 
  2371 ;; Registers used:
  2372 ;;		wreg, status,2, status,0
  2373 ;; Tracked objects:
  2374 ;;		On entry : 0/0
  2375 ;;		On exit  : 0/0
  2376 ;;		Unchanged: 0/0
  2377 ;; Data sizes:     COMMON   BANK0   BANK1   BANK3   BANK2
  2378 ;;      Params:         0       2       0       0       0
  2379 ;;      Locals:         0       5       0       0       0
  2380 ;;      Temps:          0       2       0       0       0
  2381 ;;      Totals:         0       9       0       0       0
  2382 ;;Total ram usage:        9 bytes
  2383 ;; Hardware stack levels used: 1
  2384 ;; Hardware stack levels required when called: 1
  2385 ;; This function calls:
  2386 ;;		Nothing
  2387 ;; This function is called by:
  2388 ;;		___flmul
  2389 ;; This function uses a non-reentrant model
  2390 ;;
  2391                           
  2392                           
  2393                           ;psect for function __Umul8_16
  2394  0E1A                     __Umul8_16:
  2395                           
  2396                           ;incstack = 0
  2397                           ; Regs used in __Umul8_16: [wreg+status,2+status,0]
  2398                           ;__Umul8_16@multiplier stored from wreg
  2399  0E1A  1283               	bcf	3,5	;RP0=0, select bank0
  2400  0E1B  1303               	bcf	3,6	;RP1=0, select bank0
  2401  0E1C  00A8               	movwf	__Umul8_16@multiplier
  2402  0E1D                     l1327:
  2403  0E1D  01A4               	clrf	__Umul8_16@product
  2404  0E1E  01A5               	clrf	__Umul8_16@product+1
  2405  0E1F                     l1329:
  2406  0E1F  0820               	movf	__Umul8_16@multiplicand,w
  2407  0E20  00A2               	movwf	??__Umul8_16
  2408  0E21  01A3               	clrf	??__Umul8_16+1
  2409  0E22  0822               	movf	??__Umul8_16,w
  2410  0E23  00A6               	movwf	__Umul8_16@word_mpld
  2411  0E24  0823               	movf	??__Umul8_16+1,w
  2412  0E25  00A7               	movwf	__Umul8_16@word_mpld+1
  2413  0E26                     l1331:
  2414  0E26  1C28               	btfss	__Umul8_16@multiplier,0
  2415  0E27  2E29               	goto	u1361
  2416  0E28  2E2A               	goto	u1360
  2417  0E29                     u1361:
  2418  0E29  2E30               	goto	l573
  2419  0E2A                     u1360:
  2420  0E2A                     l1333:
  2421  0E2A  0826               	movf	__Umul8_16@word_mpld,w
  2422  0E2B  07A4               	addwf	__Umul8_16@product,f
  2423  0E2C  1803               	skipnc
  2424  0E2D  0AA5               	incf	__Umul8_16@product+1,f
  2425  0E2E  0827               	movf	__Umul8_16@word_mpld+1,w
  2426  0E2F  07A5               	addwf	__Umul8_16@product+1,f
  2427  0E30                     l573:
  2428  0E30  3001               	movlw	1
  2429  0E31                     u1375:
  2430  0E31  1003               	clrc
  2431  0E32  0DA6               	rlf	__Umul8_16@word_mpld,f
  2432  0E33  0DA7               	rlf	__Umul8_16@word_mpld+1,f
  2433  0E34  3EFF               	addlw	-1
  2434  0E35  1D03               	skipz
  2435  0E36  2E31               	goto	u1375
  2436  0E37  1003               	clrc
  2437  0E38  0CA8               	rrf	__Umul8_16@multiplier,f
  2438  0E39                     l1335:
  2439  0E39  0828               	movf	__Umul8_16@multiplier,w
  2440  0E3A  1D03               	btfss	3,2
  2441  0E3B  2E3D               	goto	u1381
  2442  0E3C  2E3E               	goto	u1380
  2443  0E3D                     u1381:
  2444  0E3D  2E26               	goto	l1331
  2445  0E3E                     u1380:
  2446  0E3E                     l1337:
  2447  0E3E  0825               	movf	__Umul8_16@product+1,w
  2448  0E3F  00A1               	movwf	?__Umul8_16+1
  2449  0E40  0824               	movf	__Umul8_16@product,w
  2450  0E41  00A0               	movwf	?__Umul8_16
  2451  0E42                     l575:
  2452  0E42  0008               	return
  2453  0E43                     __end_of__Umul8_16:
  2454                           
  2455                           	psect	text7
  2456  0390                     __ptext7:	
  2457 ;; *************** function ___fladd *****************
  2458 ;; Defined at:
  2459 ;;		line 10 in file "C:\Program Files\Microchip\xc8\v2.32\pic\sources\c90\common\sprcadd.c"
  2460 ;; Parameters:    Size  Location     Type
  2461 ;;  b               4   35[BANK0 ] unsigned int 
  2462 ;;  a               4   39[BANK0 ] unsigned int 
  2463 ;; Auto vars:     Size  Location     Type
  2464 ;;  grs             1   54[BANK0 ] unsigned char 
  2465 ;;  bexp            1   53[BANK0 ] unsigned char 
  2466 ;;  aexp            1   52[BANK0 ] unsigned char 
  2467 ;;  signs           1   51[BANK0 ] unsigned char 
  2468 ;; Return value:  Size  Location     Type
  2469 ;;                  4   35[BANK0 ] unsigned char 
  2470 ;; Registers used:
  2471 ;;		wreg, status,2, status,0, btemp+1
  2472 ;; Tracked objects:
  2473 ;;		On entry : 0/0
  2474 ;;		On exit  : 0/0
  2475 ;;		Unchanged: 0/0
  2476 ;; Data sizes:     COMMON   BANK0   BANK1   BANK3   BANK2
  2477 ;;      Params:         0       8       0       0       0
  2478 ;;      Locals:         0       4       0       0       0
  2479 ;;      Temps:          0       8       0       0       0
  2480 ;;      Totals:         0      20       0       0       0
  2481 ;;Total ram usage:       20 bytes
  2482 ;; Hardware stack levels used: 1
  2483 ;; Hardware stack levels required when called: 1
  2484 ;; This function calls:
  2485 ;;		Nothing
  2486 ;; This function is called by:
  2487 ;;		_mapToCelsius
  2488 ;; This function uses a non-reentrant model
  2489 ;;
  2490                           
  2491                           
  2492                           ;psect for function ___fladd
  2493  0390                     ___fladd:
  2494  0390                     l1423:	
  2495                           ;incstack = 0
  2496                           ; Regs used in ___fladd: [wreg+status,2+status,0+btemp+1]
  2497                           
  2498  0390  1283               	bcf	3,5	;RP0=0, select bank0
  2499  0391  1303               	bcf	3,6	;RP1=0, select bank0
  2500  0392  0846               	movf	___fladd@b+3,w
  2501  0393  3980               	andlw	128
  2502  0394  00CB               	movwf	??___fladd
  2503  0395  084B               	movf	??___fladd,w
  2504  0396  00D3               	movwf	___fladd@signs
  2505  0397                     l1425:
  2506  0397  0846               	movf	___fladd@b+3,w
  2507  0398  00CB               	movwf	??___fladd
  2508  0399  074B               	addwf	??___fladd,w
  2509  039A  00CC               	movwf	??___fladd+1
  2510  039B  084C               	movf	??___fladd+1,w
  2511  039C  00D5               	movwf	___fladd@bexp
  2512  039D                     l1427:
  2513  039D  1FC5               	btfss	___fladd@b+2,7
  2514  039E  2BA0               	goto	u1581
  2515  039F  2BA1               	goto	u1580
  2516  03A0                     u1581:
  2517  03A0  2BA2               	goto	l1431
  2518  03A1                     u1580:
  2519  03A1                     l1429:
  2520  03A1  1455               	bsf	___fladd@bexp,0
  2521  03A2                     l1431:
  2522  03A2  0855               	movf	___fladd@bexp,w
  2523  03A3  1903               	btfsc	3,2
  2524  03A4  2BA6               	goto	u1591
  2525  03A5  2BA7               	goto	u1590
  2526  03A6                     u1591:
  2527  03A6  2BB7               	goto	l1441
  2528  03A7                     u1590:
  2529  03A7                     l1433:
  2530  03A7  0A55               	incf	___fladd@bexp,w
  2531  03A8  1D03               	btfss	3,2
  2532  03A9  2BAB               	goto	u1601
  2533  03AA  2BAC               	goto	u1600
  2534  03AB                     u1601:
  2535  03AB  2BB4               	goto	l1437
  2536  03AC                     u1600:
  2537  03AC                     l1435:
  2538  03AC  3000               	movlw	0
  2539  03AD  00C6               	movwf	___fladd@b+3
  2540  03AE  3000               	movlw	0
  2541  03AF  00C5               	movwf	___fladd@b+2
  2542  03B0  3000               	movlw	0
  2543  03B1  00C4               	movwf	___fladd@b+1
  2544  03B2  3000               	movlw	0
  2545  03B3  00C3               	movwf	___fladd@b
  2546  03B4                     l1437:
  2547  03B4  17C5               	bsf	___fladd@b+2,7
  2548  03B5                     l1439:
  2549  03B5  01C6               	clrf	___fladd@b+3
  2550  03B6  2BBF               	goto	l1443
  2551  03B7                     l1441:
  2552  03B7  3000               	movlw	0
  2553  03B8  00C6               	movwf	___fladd@b+3
  2554  03B9  3000               	movlw	0
  2555  03BA  00C5               	movwf	___fladd@b+2
  2556  03BB  3000               	movlw	0
  2557  03BC  00C4               	movwf	___fladd@b+1
  2558  03BD  3000               	movlw	0
  2559  03BE  00C3               	movwf	___fladd@b
  2560  03BF                     l1443:
  2561  03BF  084A               	movf	___fladd@a+3,w
  2562  03C0  3980               	andlw	128
  2563  03C1  00CB               	movwf	??___fladd
  2564  03C2  084B               	movf	??___fladd,w
  2565  03C3  00D4               	movwf	___fladd@aexp
  2566  03C4                     l1445:
  2567  03C4  0854               	movf	___fladd@aexp,w
  2568  03C5  0653               	xorwf	___fladd@signs,w
  2569  03C6  1903               	skipnz
  2570  03C7  2BC9               	goto	u1611
  2571  03C8  2BCA               	goto	u1610
  2572  03C9                     u1611:
  2573  03C9  2BCB               	goto	l1449
  2574  03CA                     u1610:
  2575  03CA                     l1447:
  2576  03CA  1753               	bsf	___fladd@signs,6
  2577  03CB                     l1449:
  2578  03CB  084A               	movf	___fladd@a+3,w
  2579  03CC  00CB               	movwf	??___fladd
  2580  03CD  074B               	addwf	??___fladd,w
  2581  03CE  00CC               	movwf	??___fladd+1
  2582  03CF  084C               	movf	??___fladd+1,w
  2583  03D0  00D4               	movwf	___fladd@aexp
  2584  03D1                     l1451:
  2585  03D1  1FC9               	btfss	___fladd@a+2,7
  2586  03D2  2BD4               	goto	u1621
  2587  03D3  2BD5               	goto	u1620
  2588  03D4                     u1621:
  2589  03D4  2BD6               	goto	l1455
  2590  03D5                     u1620:
  2591  03D5                     l1453:
  2592  03D5  1454               	bsf	___fladd@aexp,0
  2593  03D6                     l1455:
  2594  03D6  0854               	movf	___fladd@aexp,w
  2595  03D7  1903               	btfsc	3,2
  2596  03D8  2BDA               	goto	u1631
  2597  03D9  2BDB               	goto	u1630
  2598  03DA                     u1631:
  2599  03DA  2BEB               	goto	l1465
  2600  03DB                     u1630:
  2601  03DB                     l1457:
  2602  03DB  0A54               	incf	___fladd@aexp,w
  2603  03DC  1D03               	btfss	3,2
  2604  03DD  2BDF               	goto	u1641
  2605  03DE  2BE0               	goto	u1640
  2606  03DF                     u1641:
  2607  03DF  2BE8               	goto	l1461
  2608  03E0                     u1640:
  2609  03E0                     l1459:
  2610  03E0  3000               	movlw	0
  2611  03E1  00CA               	movwf	___fladd@a+3
  2612  03E2  3000               	movlw	0
  2613  03E3  00C9               	movwf	___fladd@a+2
  2614  03E4  3000               	movlw	0
  2615  03E5  00C8               	movwf	___fladd@a+1
  2616  03E6  3000               	movlw	0
  2617  03E7  00C7               	movwf	___fladd@a
  2618  03E8                     l1461:
  2619  03E8  17C9               	bsf	___fladd@a+2,7
  2620  03E9                     l1463:
  2621  03E9  01CA               	clrf	___fladd@a+3
  2622  03EA  2BF3               	goto	l458
  2623  03EB                     l1465:
  2624  03EB  3000               	movlw	0
  2625  03EC  00CA               	movwf	___fladd@a+3
  2626  03ED  3000               	movlw	0
  2627  03EE  00C9               	movwf	___fladd@a+2
  2628  03EF  3000               	movlw	0
  2629  03F0  00C8               	movwf	___fladd@a+1
  2630  03F1  3000               	movlw	0
  2631  03F2  00C7               	movwf	___fladd@a
  2632  03F3                     l458:
  2633  03F3  0855               	movf	___fladd@bexp,w
  2634  03F4  0254               	subwf	___fladd@aexp,w
  2635  03F5  1803               	skipnc
  2636  03F6  2BF8               	goto	u1651
  2637  03F7  2BF9               	goto	u1650
  2638  03F8                     u1651:
  2639  03F8  2C3D               	goto	l1501
  2640  03F9                     u1650:
  2641  03F9                     l1467:
  2642  03F9  1F53               	btfss	___fladd@signs,6
  2643  03FA  2BFC               	goto	u1661
  2644  03FB  2BFD               	goto	u1660
  2645  03FC                     u1661:
  2646  03FC  2C01               	goto	l1471
  2647  03FD                     u1660:
  2648  03FD                     l1469:
  2649  03FD  3080               	movlw	128
  2650  03FE  00CB               	movwf	??___fladd
  2651  03FF  084B               	movf	??___fladd,w
  2652  0400  06D3               	xorwf	___fladd@signs,f
  2653  0401                     l1471:
  2654  0401  0855               	movf	___fladd@bexp,w
  2655  0402  00CB               	movwf	??___fladd
  2656  0403  084B               	movf	??___fladd,w
  2657  0404  00D6               	movwf	___fladd@grs
  2658  0405                     l1473:
  2659  0405  0854               	movf	___fladd@aexp,w
  2660  0406  00CB               	movwf	??___fladd
  2661  0407  084B               	movf	??___fladd,w
  2662  0408  00D5               	movwf	___fladd@bexp
  2663  0409                     l1475:
  2664  0409  0856               	movf	___fladd@grs,w
  2665  040A  00CB               	movwf	??___fladd
  2666  040B  084B               	movf	??___fladd,w
  2667  040C  00D4               	movwf	___fladd@aexp
  2668  040D                     l1477:
  2669  040D  0843               	movf	___fladd@b,w
  2670  040E  00CB               	movwf	??___fladd
  2671  040F  084B               	movf	??___fladd,w
  2672  0410  00D6               	movwf	___fladd@grs
  2673  0411                     l1479:
  2674  0411  0847               	movf	___fladd@a,w
  2675  0412  00CB               	movwf	??___fladd
  2676  0413  084B               	movf	??___fladd,w
  2677  0414  00C3               	movwf	___fladd@b
  2678  0415                     l1481:
  2679  0415  0856               	movf	___fladd@grs,w
  2680  0416  00CB               	movwf	??___fladd
  2681  0417  084B               	movf	??___fladd,w
  2682  0418  00C7               	movwf	___fladd@a
  2683  0419                     l1483:
  2684  0419  0844               	movf	___fladd@b+1,w
  2685  041A  00CB               	movwf	??___fladd
  2686  041B  084B               	movf	??___fladd,w
  2687  041C  00D6               	movwf	___fladd@grs
  2688  041D                     l1485:
  2689  041D  0848               	movf	___fladd@a+1,w
  2690  041E  00CB               	movwf	??___fladd
  2691  041F  084B               	movf	??___fladd,w
  2692  0420  00C4               	movwf	___fladd@b+1
  2693  0421                     l1487:
  2694  0421  0856               	movf	___fladd@grs,w
  2695  0422  00CB               	movwf	??___fladd
  2696  0423  084B               	movf	??___fladd,w
  2697  0424  00C8               	movwf	___fladd@a+1
  2698  0425                     l1489:
  2699  0425  0845               	movf	___fladd@b+2,w
  2700  0426  00CB               	movwf	??___fladd
  2701  0427  084B               	movf	??___fladd,w
  2702  0428  00D6               	movwf	___fladd@grs
  2703  0429                     l1491:
  2704  0429  0849               	movf	___fladd@a+2,w
  2705  042A  00CB               	movwf	??___fladd
  2706  042B  084B               	movf	??___fladd,w
  2707  042C  00C5               	movwf	___fladd@b+2
  2708  042D                     l1493:
  2709  042D  0856               	movf	___fladd@grs,w
  2710  042E  00CB               	movwf	??___fladd
  2711  042F  084B               	movf	??___fladd,w
  2712  0430  00C9               	movwf	___fladd@a+2
  2713  0431                     l1495:
  2714  0431  0846               	movf	___fladd@b+3,w
  2715  0432  00CB               	movwf	??___fladd
  2716  0433  084B               	movf	??___fladd,w
  2717  0434  00D6               	movwf	___fladd@grs
  2718  0435                     l1497:
  2719  0435  084A               	movf	___fladd@a+3,w
  2720  0436  00CB               	movwf	??___fladd
  2721  0437  084B               	movf	??___fladd,w
  2722  0438  00C6               	movwf	___fladd@b+3
  2723  0439                     l1499:
  2724  0439  0856               	movf	___fladd@grs,w
  2725  043A  00CB               	movwf	??___fladd
  2726  043B  084B               	movf	??___fladd,w
  2727  043C  00CA               	movwf	___fladd@a+3
  2728  043D                     l1501:
  2729  043D  01D6               	clrf	___fladd@grs
  2730  043E                     l1503:
  2731  043E  0854               	movf	___fladd@aexp,w
  2732  043F  00CB               	movwf	??___fladd
  2733  0440  01CC               	clrf	??___fladd+1
  2734  0441  084C               	movf	??___fladd+1,w
  2735  0442  00CE               	movwf	??___fladd+3
  2736  0443  0855               	movf	___fladd@bexp,w
  2737  0444  024B               	subwf	??___fladd,w
  2738  0445  00CD               	movwf	??___fladd+2
  2739  0446  1C03               	skipc
  2740  0447  03CE               	decf	??___fladd+3,f
  2741  0448  084E               	movf	??___fladd+3,w
  2742  0449  3A80               	xorlw	128
  2743  044A  00FF               	movwf	btemp+1
  2744  044B  3080               	movlw	128
  2745  044C  027F               	subwf	btemp+1,w
  2746  044D  1D03               	skipz
  2747  044E  2C51               	goto	u1675
  2748  044F  301A               	movlw	26
  2749  0450  024D               	subwf	??___fladd+2,w
  2750  0451                     u1675:
  2751  0451  1C03               	skipc
  2752  0452  2C54               	goto	u1671
  2753  0453  2C55               	goto	u1670
  2754  0454                     u1671:
  2755  0454  2C92               	goto	l1519
  2756  0455                     u1670:
  2757  0455                     l1505:
  2758  0455  1283               	bcf	3,5	;RP0=0, select bank0
  2759  0456  1303               	bcf	3,6	;RP1=0, select bank0
  2760  0457  0846               	movf	___fladd@b+3,w
  2761  0458  0445               	iorwf	___fladd@b+2,w
  2762  0459  0444               	iorwf	___fladd@b+1,w
  2763  045A  0443               	iorwf	___fladd@b,w
  2764  045B  1D03               	skipz
  2765  045C  2C5E               	goto	u1681
  2766  045D  2C60               	goto	u1680
  2767  045E                     u1681:
  2768  045E  3001               	movlw	1
  2769  045F  2C61               	goto	u1690
  2770  0460                     u1680:
  2771  0460  3000               	movlw	0
  2772  0461                     u1690:
  2773  0461  00CB               	movwf	??___fladd
  2774  0462  084B               	movf	??___fladd,w
  2775  0463  00D6               	movwf	___fladd@grs
  2776  0464  3000               	movlw	0
  2777  0465  00C6               	movwf	___fladd@b+3
  2778  0466  3000               	movlw	0
  2779  0467  00C5               	movwf	___fladd@b+2
  2780  0468  3000               	movlw	0
  2781  0469  00C4               	movwf	___fladd@b+1
  2782  046A  3000               	movlw	0
  2783  046B  00C3               	movwf	___fladd@b
  2784  046C  0854               	movf	___fladd@aexp,w
  2785  046D  00CB               	movwf	??___fladd
  2786  046E  084B               	movf	??___fladd,w
  2787  046F  00D5               	movwf	___fladd@bexp
  2788  0470  2C9A               	goto	l462
  2789  0471                     l464:
  2790  0471  1C56               	btfss	___fladd@grs,0
  2791  0472  2C74               	goto	u1701
  2792  0473  2C75               	goto	u1700
  2793  0474                     u1701:
  2794  0474  2C7E               	goto	l1509
  2795  0475                     u1700:
  2796  0475                     l1507:
  2797  0475  0856               	movf	___fladd@grs,w
  2798  0476  00CB               	movwf	??___fladd
  2799  0477  1003               	clrc
  2800  0478  0C4B               	rrf	??___fladd,w
  2801  0479  3801               	iorlw	1
  2802  047A  00CC               	movwf	??___fladd+1
  2803  047B  084C               	movf	??___fladd+1,w
  2804  047C  00D6               	movwf	___fladd@grs
  2805  047D  2C80               	goto	l1511
  2806  047E                     l1509:
  2807  047E  1003               	clrc
  2808  047F  0CD6               	rrf	___fladd@grs,f
  2809  0480                     l1511:
  2810  0480  1C43               	btfss	___fladd@b,0
  2811  0481  2C83               	goto	u1711
  2812  0482  2C84               	goto	u1710
  2813  0483                     u1711:
  2814  0483  2C85               	goto	l1515
  2815  0484                     u1710:
  2816  0484                     l1513:
  2817  0484  17D6               	bsf	___fladd@grs,7
  2818  0485                     l1515:
  2819  0485  3001               	movlw	1
  2820  0486  00CB               	movwf	??___fladd
  2821  0487                     u1725:
  2822  0487  0D46               	rlf	___fladd@b+3,w
  2823  0488  0CC6               	rrf	___fladd@b+3,f
  2824  0489  0CC5               	rrf	___fladd@b+2,f
  2825  048A  0CC4               	rrf	___fladd@b+1,f
  2826  048B  0CC3               	rrf	___fladd@b,f
  2827  048C  0BCB               	decfsz	??___fladd& (0+127),f
  2828  048D  2C87               	goto	u1725
  2829  048E                     l1517:
  2830  048E  3001               	movlw	1
  2831  048F  00CB               	movwf	??___fladd
  2832  0490  084B               	movf	??___fladd,w
  2833  0491  07D5               	addwf	___fladd@bexp,f
  2834  0492                     l1519:
  2835  0492  1283               	bcf	3,5	;RP0=0, select bank0
  2836  0493  1303               	bcf	3,6	;RP1=0, select bank0
  2837  0494  0854               	movf	___fladd@aexp,w
  2838  0495  0255               	subwf	___fladd@bexp,w
  2839  0496  1C03               	skipc
  2840  0497  2C99               	goto	u1731
  2841  0498  2C9A               	goto	u1730
  2842  0499                     u1731:
  2843  0499  2C71               	goto	l464
  2844  049A                     u1730:
  2845  049A                     l462:
  2846  049A  1B53               	btfsc	___fladd@signs,6
  2847  049B  2C9D               	goto	u1741
  2848  049C  2C9E               	goto	u1740
  2849  049D                     u1741:
  2850  049D  2CE9               	goto	l1545
  2851  049E                     u1740:
  2852  049E                     l1521:
  2853  049E  0855               	movf	___fladd@bexp,w
  2854  049F  1D03               	btfss	3,2
  2855  04A0  2CA2               	goto	u1751
  2856  04A1  2CA3               	goto	u1750
  2857  04A2                     u1751:
  2858  04A2  2CAC               	goto	l1527
  2859  04A3                     u1750:
  2860  04A3                     l1523:
  2861  04A3  3000               	movlw	0
  2862  04A4  00C6               	movwf	?___fladd+3
  2863  04A5  3000               	movlw	0
  2864  04A6  00C5               	movwf	?___fladd+2
  2865  04A7  3000               	movlw	0
  2866  04A8  00C4               	movwf	?___fladd+1
  2867  04A9  3000               	movlw	0
  2868  04AA  00C3               	movwf	?___fladd
  2869  04AB  2E17               	goto	l471
  2870  04AC                     l1527:
  2871  04AC  0847               	movf	___fladd@a,w
  2872  04AD  07C3               	addwf	___fladd@b,f
  2873  04AE  0848               	movf	___fladd@a+1,w
  2874  04AF  1103               	clrz
  2875  04B0  1803               	skipnc
  2876  04B1  3E01               	addlw	1
  2877  04B2  1903               	skipnz
  2878  04B3  2CB5               	goto	u1761
  2879  04B4  07C4               	addwf	___fladd@b+1,f
  2880  04B5                     u1761:
  2881  04B5  0849               	movf	___fladd@a+2,w
  2882  04B6  1103               	clrz
  2883  04B7  1803               	skipnc
  2884  04B8  3E01               	addlw	1
  2885  04B9  1903               	skipnz
  2886  04BA  2CBC               	goto	u1762
  2887  04BB  07C5               	addwf	___fladd@b+2,f
  2888  04BC                     u1762:
  2889  04BC  084A               	movf	___fladd@a+3,w
  2890  04BD  1103               	clrz
  2891  04BE  1803               	skipnc
  2892  04BF  3E01               	addlw	1
  2893  04C0  1903               	skipnz
  2894  04C1  2CC3               	goto	u1763
  2895  04C2  07C6               	addwf	___fladd@b+3,f
  2896  04C3                     u1763:
  2897  04C3                     l1529:
  2898  04C3  1C46               	btfss	___fladd@b+3,0
  2899  04C4  2CC6               	goto	u1771
  2900  04C5  2CC7               	goto	u1770
  2901  04C6                     u1771:
  2902  04C6  2D9D               	goto	l1579
  2903  04C7                     u1770:
  2904  04C7                     l1531:
  2905  04C7  1C56               	btfss	___fladd@grs,0
  2906  04C8  2CCA               	goto	u1781
  2907  04C9  2CCB               	goto	u1780
  2908  04CA                     u1781:
  2909  04CA  2CD4               	goto	l1535
  2910  04CB                     u1780:
  2911  04CB                     l1533:
  2912  04CB  0856               	movf	___fladd@grs,w
  2913  04CC  00CB               	movwf	??___fladd
  2914  04CD  1003               	clrc
  2915  04CE  0C4B               	rrf	??___fladd,w
  2916  04CF  3801               	iorlw	1
  2917  04D0  00CC               	movwf	??___fladd+1
  2918  04D1  084C               	movf	??___fladd+1,w
  2919  04D2  00D6               	movwf	___fladd@grs
  2920  04D3  2CD6               	goto	l1537
  2921  04D4                     l1535:
  2922  04D4  1003               	clrc
  2923  04D5  0CD6               	rrf	___fladd@grs,f
  2924  04D6                     l1537:
  2925  04D6  1C43               	btfss	___fladd@b,0
  2926  04D7  2CD9               	goto	u1791
  2927  04D8  2CDA               	goto	u1790
  2928  04D9                     u1791:
  2929  04D9  2CDB               	goto	l1541
  2930  04DA                     u1790:
  2931  04DA                     l1539:
  2932  04DA  17D6               	bsf	___fladd@grs,7
  2933  04DB                     l1541:
  2934  04DB  3001               	movlw	1
  2935  04DC  00CB               	movwf	??___fladd
  2936  04DD                     u1805:
  2937  04DD  0D46               	rlf	___fladd@b+3,w
  2938  04DE  0CC6               	rrf	___fladd@b+3,f
  2939  04DF  0CC5               	rrf	___fladd@b+2,f
  2940  04E0  0CC4               	rrf	___fladd@b+1,f
  2941  04E1  0CC3               	rrf	___fladd@b,f
  2942  04E2  0BCB               	decfsz	??___fladd& (0+127),f
  2943  04E3  2CDD               	goto	u1805
  2944  04E4                     l1543:
  2945  04E4  3001               	movlw	1
  2946  04E5  00CB               	movwf	??___fladd
  2947  04E6  084B               	movf	??___fladd,w
  2948  04E7  07D5               	addwf	___fladd@bexp,f
  2949  04E8  2D9D               	goto	l1579
  2950  04E9                     l1545:
  2951  04E9  0846               	movf	___fladd@b+3,w
  2952  04EA  3A80               	xorlw	128
  2953  04EB  00FF               	movwf	btemp+1
  2954  04EC  084A               	movf	___fladd@a+3,w
  2955  04ED  3A80               	xorlw	128
  2956  04EE  027F               	subwf	btemp+1,w
  2957  04EF  1D03               	skipz
  2958  04F0  2CFB               	goto	u1813
  2959  04F1  0849               	movf	___fladd@a+2,w
  2960  04F2  0245               	subwf	___fladd@b+2,w
  2961  04F3  1D03               	skipz
  2962  04F4  2CFB               	goto	u1813
  2963  04F5  0848               	movf	___fladd@a+1,w
  2964  04F6  0244               	subwf	___fladd@b+1,w
  2965  04F7  1D03               	skipz
  2966  04F8  2CFB               	goto	u1813
  2967  04F9  0847               	movf	___fladd@a,w
  2968  04FA  0243               	subwf	___fladd@b,w
  2969  04FB                     u1813:
  2970  04FB  1803               	skipnc
  2971  04FC  2CFE               	goto	u1811
  2972  04FD  2CFF               	goto	u1810
  2973  04FE                     u1811:
  2974  04FE  2D57               	goto	l1555
  2975  04FF                     u1810:
  2976  04FF                     l1547:
  2977  04FF  30FF               	movlw	255
  2978  0500  00CB               	movwf	??___fladd
  2979  0501  30FF               	movlw	255
  2980  0502  00CC               	movwf	??___fladd+1
  2981  0503  30FF               	movlw	255
  2982  0504  00CD               	movwf	??___fladd+2
  2983  0505  30FF               	movlw	255
  2984  0506  00CE               	movwf	??___fladd+3
  2985  0507  0847               	movf	___fladd@a,w
  2986  0508  00CF               	movwf	??___fladd+4
  2987  0509  0848               	movf	___fladd@a+1,w
  2988  050A  00D0               	movwf	??___fladd+5
  2989  050B  0849               	movf	___fladd@a+2,w
  2990  050C  00D1               	movwf	??___fladd+6
  2991  050D  084A               	movf	___fladd@a+3,w
  2992  050E  00D2               	movwf	??___fladd+7
  2993  050F  0843               	movf	___fladd@b,w
  2994  0510  02CF               	subwf	??___fladd+4,f
  2995  0511  0844               	movf	___fladd@b+1,w
  2996  0512  1C03               	skipc
  2997  0513  0F44               	incfsz	___fladd@b+1,w
  2998  0514  2D16               	goto	u1821
  2999  0515  2D17               	goto	u1822
  3000  0516                     u1821:
  3001  0516  02D0               	subwf	??___fladd+5,f
  3002  0517                     u1822:
  3003  0517  0845               	movf	___fladd@b+2,w
  3004  0518  1C03               	skipc
  3005  0519  0F45               	incfsz	___fladd@b+2,w
  3006  051A  2D1C               	goto	u1823
  3007  051B  2D1D               	goto	u1824
  3008  051C                     u1823:
  3009  051C  02D1               	subwf	??___fladd+6,f
  3010  051D                     u1824:
  3011  051D  0846               	movf	___fladd@b+3,w
  3012  051E  1C03               	skipc
  3013  051F  0F46               	incfsz	___fladd@b+3,w
  3014  0520  2D22               	goto	u1825
  3015  0521  2D23               	goto	u1826
  3016  0522                     u1825:
  3017  0522  02D2               	subwf	??___fladd+7,f
  3018  0523                     u1826:
  3019  0523  084F               	movf	??___fladd+4,w
  3020  0524  07CB               	addwf	??___fladd,f
  3021  0525  0850               	movf	??___fladd+5,w
  3022  0526  1803               	skipnc
  3023  0527  0F50               	incfsz	??___fladd+5,w
  3024  0528  2D2A               	goto	u1830
  3025  0529  2D2B               	goto	u1831
  3026  052A                     u1830:
  3027  052A  07CC               	addwf	??___fladd+1,f
  3028  052B                     u1831:
  3029  052B  0851               	movf	??___fladd+6,w
  3030  052C  1803               	skipnc
  3031  052D  0F51               	incfsz	??___fladd+6,w
  3032  052E  2D30               	goto	u1832
  3033  052F  2D31               	goto	u1833
  3034  0530                     u1832:
  3035  0530  07CD               	addwf	??___fladd+2,f
  3036  0531                     u1833:
  3037  0531  0852               	movf	??___fladd+7,w
  3038  0532  1803               	skipnc
  3039  0533  0A52               	incf	??___fladd+7,w
  3040  0534  07CE               	addwf	??___fladd+3,f
  3041  0535  084E               	movf	??___fladd+3,w
  3042  0536  00C6               	movwf	___fladd@b+3
  3043  0537  084D               	movf	??___fladd+2,w
  3044  0538  00C5               	movwf	___fladd@b+2
  3045  0539  084C               	movf	??___fladd+1,w
  3046  053A  00C4               	movwf	___fladd@b+1
  3047  053B  084B               	movf	??___fladd,w
  3048  053C  00C3               	movwf	___fladd@b
  3049  053D                     l1549:
  3050  053D  3080               	movlw	128
  3051  053E  00CB               	movwf	??___fladd
  3052  053F  084B               	movf	??___fladd,w
  3053  0540  06D3               	xorwf	___fladd@signs,f
  3054  0541  09D6               	comf	___fladd@grs,f
  3055  0542  0AD6               	incf	___fladd@grs,f
  3056  0543                     l1551:
  3057  0543  0856               	movf	___fladd@grs,w
  3058  0544  1D03               	btfss	3,2
  3059  0545  2D47               	goto	u1841
  3060  0546  2D48               	goto	u1840
  3061  0547                     u1841:
  3062  0547  2D65               	goto	l479
  3063  0548                     u1840:
  3064  0548                     l1553:
  3065  0548  3001               	movlw	1
  3066  0549  07C3               	addwf	___fladd@b,f
  3067  054A  3000               	movlw	0
  3068  054B  1803               	skipnc
  3069  054C  3001               	movlw	1
  3070  054D  07C4               	addwf	___fladd@b+1,f
  3071  054E  3000               	movlw	0
  3072  054F  1803               	skipnc
  3073  0550  3001               	movlw	1
  3074  0551  07C5               	addwf	___fladd@b+2,f
  3075  0552  3000               	movlw	0
  3076  0553  1803               	skipnc
  3077  0554  3001               	movlw	1
  3078  0555  07C6               	addwf	___fladd@b+3,f
  3079  0556  2D65               	goto	l479
  3080  0557                     l1555:
  3081  0557  0847               	movf	___fladd@a,w
  3082  0558  02C3               	subwf	___fladd@b,f
  3083  0559  0848               	movf	___fladd@a+1,w
  3084  055A  1C03               	skipc
  3085  055B  0F48               	incfsz	___fladd@a+1,w
  3086  055C  02C4               	subwf	___fladd@b+1,f
  3087  055D  0849               	movf	___fladd@a+2,w
  3088  055E  1C03               	skipc
  3089  055F  0F49               	incfsz	___fladd@a+2,w
  3090  0560  02C5               	subwf	___fladd@b+2,f
  3091  0561  084A               	movf	___fladd@a+3,w
  3092  0562  1C03               	skipc
  3093  0563  0F4A               	incfsz	___fladd@a+3,w
  3094  0564  02C6               	subwf	___fladd@b+3,f
  3095  0565                     l479:
  3096  0565  0846               	movf	___fladd@b+3,w
  3097  0566  0445               	iorwf	___fladd@b+2,w
  3098  0567  0444               	iorwf	___fladd@b+1,w
  3099  0568  0443               	iorwf	___fladd@b,w
  3100  0569  1D03               	skipz
  3101  056A  2D6C               	goto	u1851
  3102  056B  2D6D               	goto	u1850
  3103  056C                     u1851:
  3104  056C  2D99               	goto	l1577
  3105  056D                     u1850:
  3106  056D                     l1557:
  3107  056D  0856               	movf	___fladd@grs,w
  3108  056E  1D03               	btfss	3,2
  3109  056F  2D71               	goto	u1861
  3110  0570  2D72               	goto	u1860
  3111  0571                     u1861:
  3112  0571  2D99               	goto	l1577
  3113  0572                     u1860:
  3114  0572                     l1559:
  3115  0572  3000               	movlw	0
  3116  0573  00C6               	movwf	?___fladd+3
  3117  0574  3000               	movlw	0
  3118  0575  00C5               	movwf	?___fladd+2
  3119  0576  3000               	movlw	0
  3120  0577  00C4               	movwf	?___fladd+1
  3121  0578  3000               	movlw	0
  3122  0579  00C3               	movwf	?___fladd
  3123  057A  2E17               	goto	l471
  3124  057B                     l1563:
  3125  057B  3001               	movlw	1
  3126  057C  00CB               	movwf	??___fladd
  3127  057D                     u1875:
  3128  057D  1003               	clrc
  3129  057E  0DC3               	rlf	___fladd@b,f
  3130  057F  0DC4               	rlf	___fladd@b+1,f
  3131  0580  0DC5               	rlf	___fladd@b+2,f
  3132  0581  0DC6               	rlf	___fladd@b+3,f
  3133  0582  0BCB               	decfsz	??___fladd,f
  3134  0583  2D7D               	goto	u1875
  3135  0584                     l1565:
  3136  0584  1FD6               	btfss	___fladd@grs,7
  3137  0585  2D87               	goto	u1881
  3138  0586  2D88               	goto	u1880
  3139  0587                     u1881:
  3140  0587  2D89               	goto	l483
  3141  0588                     u1880:
  3142  0588                     l1567:
  3143  0588  1443               	bsf	___fladd@b,0
  3144  0589                     l483:
  3145  0589  1C56               	btfss	___fladd@grs,0
  3146  058A  2D8C               	goto	u1891
  3147  058B  2D8D               	goto	u1890
  3148  058C                     u1891:
  3149  058C  2D90               	goto	l1571
  3150  058D                     u1890:
  3151  058D                     l1569:
  3152  058D  1403               	setc
  3153  058E  0DD6               	rlf	___fladd@grs,f
  3154  058F  2D92               	goto	l1573
  3155  0590                     l1571:
  3156  0590  1003               	clrc
  3157  0591  0DD6               	rlf	___fladd@grs,f
  3158  0592                     l1573:
  3159  0592  0855               	movf	___fladd@bexp,w
  3160  0593  1903               	btfsc	3,2
  3161  0594  2D96               	goto	u1901
  3162  0595  2D97               	goto	u1900
  3163  0596                     u1901:
  3164  0596  2D99               	goto	l1577
  3165  0597                     u1900:
  3166  0597                     l1575:
  3167  0597  3001               	movlw	1
  3168  0598  02D5               	subwf	___fladd@bexp,f
  3169  0599                     l1577:
  3170  0599  1FC5               	btfss	___fladd@b+2,7
  3171  059A  2D9C               	goto	u1911
  3172  059B  2D9D               	goto	u1910
  3173  059C                     u1911:
  3174  059C  2D7B               	goto	l1563
  3175  059D                     u1910:
  3176  059D                     l1579:
  3177  059D  01D4               	clrf	___fladd@aexp
  3178  059E                     l1581:
  3179  059E  1FD6               	btfss	___fladd@grs,7
  3180  059F  2DA1               	goto	u1921
  3181  05A0  2DA2               	goto	u1920
  3182  05A1                     u1921:
  3183  05A1  2DB0               	goto	l1589
  3184  05A2                     u1920:
  3185  05A2                     l1583:
  3186  05A2  0856               	movf	___fladd@grs,w
  3187  05A3  397F               	andlw	127
  3188  05A4  1903               	btfsc	3,2
  3189  05A5  2DA7               	goto	u1931
  3190  05A6  2DA8               	goto	u1930
  3191  05A7                     u1931:
  3192  05A7  2DAB               	goto	l489
  3193  05A8                     u1930:
  3194  05A8                     l1585:
  3195  05A8  01D4               	clrf	___fladd@aexp
  3196  05A9  0AD4               	incf	___fladd@aexp,f
  3197  05AA  2DB0               	goto	l1589
  3198  05AB                     l489:
  3199  05AB  1C43               	btfss	___fladd@b,0
  3200  05AC  2DAE               	goto	u1941
  3201  05AD  2DAF               	goto	u1940
  3202  05AE                     u1941:
  3203  05AE  2DB0               	goto	l1589
  3204  05AF                     u1940:
  3205  05AF  2DA8               	goto	l1585
  3206  05B0                     l1589:
  3207  05B0  0854               	movf	___fladd@aexp,w
  3208  05B1  1903               	btfsc	3,2
  3209  05B2  2DB4               	goto	u1951
  3210  05B3  2DB5               	goto	u1950
  3211  05B4                     u1951:
  3212  05B4  2DE9               	goto	l492
  3213  05B5                     u1950:
  3214  05B5                     l1591:
  3215  05B5  3001               	movlw	1
  3216  05B6  07C3               	addwf	___fladd@b,f
  3217  05B7  3000               	movlw	0
  3218  05B8  1803               	skipnc
  3219  05B9  3001               	movlw	1
  3220  05BA  07C4               	addwf	___fladd@b+1,f
  3221  05BB  3000               	movlw	0
  3222  05BC  1803               	skipnc
  3223  05BD  3001               	movlw	1
  3224  05BE  07C5               	addwf	___fladd@b+2,f
  3225  05BF  3000               	movlw	0
  3226  05C0  1803               	skipnc
  3227  05C1  3001               	movlw	1
  3228  05C2  07C6               	addwf	___fladd@b+3,f
  3229  05C3                     l1593:
  3230  05C3  1C46               	btfss	___fladd@b+3,0
  3231  05C4  2DC6               	goto	u1961
  3232  05C5  2DC7               	goto	u1960
  3233  05C6                     u1961:
  3234  05C6  2DE9               	goto	l492
  3235  05C7                     u1960:
  3236  05C7                     l1595:
  3237  05C7  0843               	movf	___fladd@b,w
  3238  05C8  00CB               	movwf	??___fladd
  3239  05C9  0844               	movf	___fladd@b+1,w
  3240  05CA  00CC               	movwf	??___fladd+1
  3241  05CB  0845               	movf	___fladd@b+2,w
  3242  05CC  00CD               	movwf	??___fladd+2
  3243  05CD  0846               	movf	___fladd@b+3,w
  3244  05CE  00CE               	movwf	??___fladd+3
  3245  05CF  3001               	movlw	1
  3246  05D0  00CF               	movwf	??___fladd+4
  3247  05D1                     u1975:
  3248  05D1  0D4E               	rlf	??___fladd+3,w
  3249  05D2  0CCE               	rrf	??___fladd+3,f
  3250  05D3  0CCD               	rrf	??___fladd+2,f
  3251  05D4  0CCC               	rrf	??___fladd+1,f
  3252  05D5  0CCB               	rrf	??___fladd,f
  3253  05D6                     u1970:
  3254  05D6  0BCF               	decfsz	??___fladd+4,f
  3255  05D7  2DD1               	goto	u1975
  3256  05D8  084E               	movf	??___fladd+3,w
  3257  05D9  00C6               	movwf	___fladd@b+3
  3258  05DA  084D               	movf	??___fladd+2,w
  3259  05DB  00C5               	movwf	___fladd@b+2
  3260  05DC  084C               	movf	??___fladd+1,w
  3261  05DD  00C4               	movwf	___fladd@b+1
  3262  05DE  084B               	movf	??___fladd,w
  3263  05DF  00C3               	movwf	___fladd@b
  3264  05E0  0A55               	incf	___fladd@bexp,w
  3265  05E1  1903               	btfsc	3,2
  3266  05E2  2DE4               	goto	u1981
  3267  05E3  2DE5               	goto	u1980
  3268  05E4                     u1981:
  3269  05E4  2DE9               	goto	l492
  3270  05E5                     u1980:
  3271  05E5                     l1597:
  3272  05E5  3001               	movlw	1
  3273  05E6  00CB               	movwf	??___fladd
  3274  05E7  084B               	movf	??___fladd,w
  3275  05E8  07D5               	addwf	___fladd@bexp,f
  3276  05E9                     l492:
  3277  05E9  0A55               	incf	___fladd@bexp,w
  3278  05EA  1903               	btfsc	3,2
  3279  05EB  2DED               	goto	u1991
  3280  05EC  2DEE               	goto	u1990
  3281  05ED                     u1991:
  3282  05ED  2DF3               	goto	l1601
  3283  05EE                     u1990:
  3284  05EE                     l1599:
  3285  05EE  0855               	movf	___fladd@bexp,w
  3286  05EF  1D03               	btfss	3,2
  3287  05F0  2DF2               	goto	u2001
  3288  05F1  2DF3               	goto	u2000
  3289  05F2                     u2001:
  3290  05F2  2E01               	goto	l1607
  3291  05F3                     u2000:
  3292  05F3                     l1601:
  3293  05F3  3000               	movlw	0
  3294  05F4  00C6               	movwf	___fladd@b+3
  3295  05F5  3000               	movlw	0
  3296  05F6  00C5               	movwf	___fladd@b+2
  3297  05F7  3000               	movlw	0
  3298  05F8  00C4               	movwf	___fladd@b+1
  3299  05F9  3000               	movlw	0
  3300  05FA  00C3               	movwf	___fladd@b
  3301  05FB                     l1603:
  3302  05FB  0855               	movf	___fladd@bexp,w
  3303  05FC  1D03               	btfss	3,2
  3304  05FD  2DFF               	goto	u2011
  3305  05FE  2E00               	goto	u2010
  3306  05FF                     u2011:
  3307  05FF  2E01               	goto	l1607
  3308  0600                     u2010:
  3309  0600                     l1605:
  3310  0600  01D3               	clrf	___fladd@signs
  3311  0601                     l1607:
  3312  0601  1C55               	btfss	___fladd@bexp,0
  3313  0602  2E04               	goto	u2021
  3314  0603  2E05               	goto	u2020
  3315  0604                     u2021:
  3316  0604  2E07               	goto	l1611
  3317  0605                     u2020:
  3318  0605                     l1609:
  3319  0605  17C5               	bsf	___fladd@b+2,7
  3320  0606  2E0B               	goto	l500
  3321  0607                     l1611:
  3322  0607  307F               	movlw	127
  3323  0608  00CB               	movwf	??___fladd
  3324  0609  084B               	movf	??___fladd,w
  3325  060A  05C5               	andwf	___fladd@b+2,f
  3326  060B                     l500:
  3327  060B  0855               	movf	___fladd@bexp,w
  3328  060C  00CB               	movwf	??___fladd
  3329  060D  1003               	clrc
  3330  060E  0C4B               	rrf	??___fladd,w
  3331  060F  00CC               	movwf	??___fladd+1
  3332  0610  084C               	movf	??___fladd+1,w
  3333  0611  00C6               	movwf	___fladd@b+3
  3334  0612                     l1613:
  3335  0612  1FD3               	btfss	___fladd@signs,7
  3336  0613  2E15               	goto	u2031
  3337  0614  2E16               	goto	u2030
  3338  0615                     u2031:
  3339  0615  2E17               	goto	l501
  3340  0616                     u2030:
  3341  0616                     l1615:
  3342  0616  17C6               	bsf	___fladd@b+3,7
  3343  0617                     l501:
  3344  0617                     l471:
  3345  0617  0008               	return
  3346  0618                     __end_of___fladd:
  3347                           
  3348                           	psect	text8
  3349  0618                     __ptext8:	
  3350 ;; *************** function ___xxtofl *****************
  3351 ;; Defined at:
  3352 ;;		line 10 in file "C:\Program Files\Microchip\xc8\v2.32\pic\sources\c90\common\xxtofl.c"
  3353 ;; Parameters:    Size  Location     Type
  3354 ;;  sign            1    wreg     unsigned char 
  3355 ;;  val             4    0[BANK0 ] long 
  3356 ;; Auto vars:     Size  Location     Type
  3357 ;;  sign            1    8[BANK0 ] unsigned char 
  3358 ;;  arg             4   10[BANK0 ] unsigned long 
  3359 ;;  exp             1    9[BANK0 ] unsigned char 
  3360 ;; Return value:  Size  Location     Type
  3361 ;;                  4    0[BANK0 ] unsigned char 
  3362 ;; Registers used:
  3363 ;;		wreg, status,2, status,0
  3364 ;; Tracked objects:
  3365 ;;		On entry : 0/0
  3366 ;;		On exit  : 0/0
  3367 ;;		Unchanged: 0/0
  3368 ;; Data sizes:     COMMON   BANK0   BANK1   BANK3   BANK2
  3369 ;;      Params:         0       4       0       0       0
  3370 ;;      Locals:         0       6       0       0       0
  3371 ;;      Temps:          0       4       0       0       0
  3372 ;;      Totals:         0      14       0       0       0
  3373 ;;Total ram usage:       14 bytes
  3374 ;; Hardware stack levels used: 1
  3375 ;; Hardware stack levels required when called: 1
  3376 ;; This function calls:
  3377 ;;		Nothing
  3378 ;; This function is called by:
  3379 ;;		_main
  3380 ;; This function uses a non-reentrant model
  3381 ;;
  3382                           
  3383                           
  3384                           ;psect for function ___xxtofl
  3385  0618                     ___xxtofl:
  3386                           
  3387                           ;incstack = 0
  3388                           ; Regs used in ___xxtofl: [wreg+status,2+status,0]
  3389                           ;___xxtofl@sign stored from wreg
  3390  0618  1283               	bcf	3,5	;RP0=0, select bank0
  3391  0619  1303               	bcf	3,6	;RP1=0, select bank0
  3392  061A  00A8               	movwf	___xxtofl@sign
  3393  061B                     l1811:
  3394  061B  0828               	movf	___xxtofl@sign,w
  3395  061C  1903               	btfsc	3,2
  3396  061D  2E1F               	goto	u2521
  3397  061E  2E20               	goto	u2520
  3398  061F                     u2521:
  3399  061F  2E34               	goto	l1817
  3400  0620                     u2520:
  3401  0620                     l1813:
  3402  0620  1FA3               	btfss	___xxtofl@val+3,7
  3403  0621  2E23               	goto	u2531
  3404  0622  2E24               	goto	u2530
  3405  0623                     u2531:
  3406  0623  2E34               	goto	l1817
  3407  0624                     u2530:
  3408  0624                     l1815:
  3409  0624  0920               	comf	___xxtofl@val,w
  3410  0625  00AA               	movwf	___xxtofl@arg
  3411  0626  0921               	comf	___xxtofl@val+1,w
  3412  0627  00AB               	movwf	___xxtofl@arg+1
  3413  0628  0922               	comf	___xxtofl@val+2,w
  3414  0629  00AC               	movwf	___xxtofl@arg+2
  3415  062A  0923               	comf	___xxtofl@val+3,w
  3416  062B  00AD               	movwf	___xxtofl@arg+3
  3417  062C  0AAA               	incf	___xxtofl@arg,f
  3418  062D  1903               	skipnz
  3419  062E  0AAB               	incf	___xxtofl@arg+1,f
  3420  062F  1903               	skipnz
  3421  0630  0AAC               	incf	___xxtofl@arg+2,f
  3422  0631  1903               	skipnz
  3423  0632  0AAD               	incf	___xxtofl@arg+3,f
  3424  0633  2E3C               	goto	l598
  3425  0634                     l1817:
  3426  0634  0823               	movf	___xxtofl@val+3,w
  3427  0635  00AD               	movwf	___xxtofl@arg+3
  3428  0636  0822               	movf	___xxtofl@val+2,w
  3429  0637  00AC               	movwf	___xxtofl@arg+2
  3430  0638  0821               	movf	___xxtofl@val+1,w
  3431  0639  00AB               	movwf	___xxtofl@arg+1
  3432  063A  0820               	movf	___xxtofl@val,w
  3433  063B  00AA               	movwf	___xxtofl@arg
  3434  063C                     l598:
  3435  063C  0823               	movf	___xxtofl@val+3,w
  3436  063D  0422               	iorwf	___xxtofl@val+2,w
  3437  063E  0421               	iorwf	___xxtofl@val+1,w
  3438  063F  0420               	iorwf	___xxtofl@val,w
  3439  0640  1D03               	skipz
  3440  0641  2E43               	goto	u2541
  3441  0642  2E44               	goto	u2540
  3442  0643                     u2541:
  3443  0643  2E4D               	goto	l1823
  3444  0644                     u2540:
  3445  0644                     l1819:
  3446  0644  3000               	movlw	0
  3447  0645  00A3               	movwf	?___xxtofl+3
  3448  0646  3000               	movlw	0
  3449  0647  00A2               	movwf	?___xxtofl+2
  3450  0648  3000               	movlw	0
  3451  0649  00A1               	movwf	?___xxtofl+1
  3452  064A  3000               	movlw	0
  3453  064B  00A0               	movwf	?___xxtofl
  3454  064C  2ED3               	goto	l600
  3455  064D                     l1823:
  3456  064D  3096               	movlw	150
  3457  064E  00A4               	movwf	??___xxtofl
  3458  064F  0824               	movf	??___xxtofl,w
  3459  0650  00A9               	movwf	___xxtofl@exp
  3460  0651  2E5F               	goto	l1827
  3461  0652                     l1825:
  3462  0652  3001               	movlw	1
  3463  0653  00A4               	movwf	??___xxtofl
  3464  0654  0824               	movf	??___xxtofl,w
  3465  0655  07A9               	addwf	___xxtofl@exp,f
  3466  0656  3001               	movlw	1
  3467  0657                     u2555:
  3468  0657  1003               	clrc
  3469  0658  0CAD               	rrf	___xxtofl@arg+3,f
  3470  0659  0CAC               	rrf	___xxtofl@arg+2,f
  3471  065A  0CAB               	rrf	___xxtofl@arg+1,f
  3472  065B  0CAA               	rrf	___xxtofl@arg,f
  3473  065C  3EFF               	addlw	-1
  3474  065D  1D03               	skipz
  3475  065E  2E57               	goto	u2555
  3476  065F                     l1827:
  3477  065F  30FE               	movlw	254
  3478  0660  052D               	andwf	___xxtofl@arg+3,w
  3479  0661  1D03               	btfss	3,2
  3480  0662  2E64               	goto	u2561
  3481  0663  2E65               	goto	u2560
  3482  0664                     u2561:
  3483  0664  2E52               	goto	l1825
  3484  0665                     u2560:
  3485  0665  2E81               	goto	l604
  3486  0666                     l1829:
  3487  0666  3001               	movlw	1
  3488  0667  00A4               	movwf	??___xxtofl
  3489  0668  0824               	movf	??___xxtofl,w
  3490  0669  07A9               	addwf	___xxtofl@exp,f
  3491  066A                     l1831:
  3492  066A  3001               	movlw	1
  3493  066B  07AA               	addwf	___xxtofl@arg,f
  3494  066C  3000               	movlw	0
  3495  066D  1803               	skipnc
  3496  066E  3001               	movlw	1
  3497  066F  07AB               	addwf	___xxtofl@arg+1,f
  3498  0670  3000               	movlw	0
  3499  0671  1803               	skipnc
  3500  0672  3001               	movlw	1
  3501  0673  07AC               	addwf	___xxtofl@arg+2,f
  3502  0674  3000               	movlw	0
  3503  0675  1803               	skipnc
  3504  0676  3001               	movlw	1
  3505  0677  07AD               	addwf	___xxtofl@arg+3,f
  3506  0678                     l1833:
  3507  0678  3001               	movlw	1
  3508  0679                     u2575:
  3509  0679  1003               	clrc
  3510  067A  0CAD               	rrf	___xxtofl@arg+3,f
  3511  067B  0CAC               	rrf	___xxtofl@arg+2,f
  3512  067C  0CAB               	rrf	___xxtofl@arg+1,f
  3513  067D  0CAA               	rrf	___xxtofl@arg,f
  3514  067E  3EFF               	addlw	-1
  3515  067F  1D03               	skipz
  3516  0680  2E79               	goto	u2575
  3517  0681                     l604:
  3518  0681  30FF               	movlw	255
  3519  0682  052D               	andwf	___xxtofl@arg+3,w
  3520  0683  1D03               	btfss	3,2
  3521  0684  2E86               	goto	u2581
  3522  0685  2E87               	goto	u2580
  3523  0686                     u2581:
  3524  0686  2E66               	goto	l1829
  3525  0687                     u2580:
  3526  0687  2E93               	goto	l1837
  3527  0688                     l1835:
  3528  0688  3001               	movlw	1
  3529  0689  02A9               	subwf	___xxtofl@exp,f
  3530  068A  3001               	movlw	1
  3531  068B  00A4               	movwf	??___xxtofl
  3532  068C                     u2595:
  3533  068C  1003               	clrc
  3534  068D  0DAA               	rlf	___xxtofl@arg,f
  3535  068E  0DAB               	rlf	___xxtofl@arg+1,f
  3536  068F  0DAC               	rlf	___xxtofl@arg+2,f
  3537  0690  0DAD               	rlf	___xxtofl@arg+3,f
  3538  0691  0BA4               	decfsz	??___xxtofl,f
  3539  0692  2E8C               	goto	u2595
  3540  0693                     l1837:
  3541  0693  1BAC               	btfsc	___xxtofl@arg+2,7
  3542  0694  2E96               	goto	u2601
  3543  0695  2E97               	goto	u2600
  3544  0696                     u2601:
  3545  0696  2E9D               	goto	l611
  3546  0697                     u2600:
  3547  0697                     l1839:
  3548  0697  3002               	movlw	2
  3549  0698  0229               	subwf	___xxtofl@exp,w
  3550  0699  1803               	skipnc
  3551  069A  2E9C               	goto	u2611
  3552  069B  2E9D               	goto	u2610
  3553  069C                     u2611:
  3554  069C  2E88               	goto	l1835
  3555  069D                     u2610:
  3556  069D                     l611:
  3557  069D  1829               	btfsc	___xxtofl@exp,0
  3558  069E  2EA0               	goto	u2621
  3559  069F  2EA1               	goto	u2620
  3560  06A0                     u2621:
  3561  06A0  2EA9               	goto	l612
  3562  06A1                     u2620:
  3563  06A1                     l1841:
  3564  06A1  30FF               	movlw	255
  3565  06A2  05AA               	andwf	___xxtofl@arg,f
  3566  06A3  30FF               	movlw	255
  3567  06A4  05AB               	andwf	___xxtofl@arg+1,f
  3568  06A5  307F               	movlw	127
  3569  06A6  05AC               	andwf	___xxtofl@arg+2,f
  3570  06A7  30FF               	movlw	255
  3571  06A8  05AD               	andwf	___xxtofl@arg+3,f
  3572  06A9                     l612:
  3573  06A9  1003               	clrc
  3574  06AA  0CA9               	rrf	___xxtofl@exp,f
  3575  06AB                     l1843:
  3576  06AB  0829               	movf	___xxtofl@exp,w
  3577  06AC  00A4               	movwf	??___xxtofl
  3578  06AD  01A5               	clrf	??___xxtofl+1
  3579  06AE  01A6               	clrf	??___xxtofl+2
  3580  06AF  01A7               	clrf	??___xxtofl+3
  3581  06B0  3018               	movlw	24
  3582  06B1                     u2635:
  3583  06B1  1003               	clrc
  3584  06B2  0DA4               	rlf	??___xxtofl,f
  3585  06B3  0DA5               	rlf	??___xxtofl+1,f
  3586  06B4  0DA6               	rlf	??___xxtofl+2,f
  3587  06B5  0DA7               	rlf	??___xxtofl+3,f
  3588  06B6                     u2630:
  3589  06B6  3EFF               	addlw	-1
  3590  06B7  1D03               	skipz
  3591  06B8  2EB1               	goto	u2635
  3592  06B9  0824               	movf	??___xxtofl,w
  3593  06BA  04AA               	iorwf	___xxtofl@arg,f
  3594  06BB  0825               	movf	??___xxtofl+1,w
  3595  06BC  04AB               	iorwf	___xxtofl@arg+1,f
  3596  06BD  0826               	movf	??___xxtofl+2,w
  3597  06BE  04AC               	iorwf	___xxtofl@arg+2,f
  3598  06BF  0827               	movf	??___xxtofl+3,w
  3599  06C0  04AD               	iorwf	___xxtofl@arg+3,f
  3600  06C1                     l1845:
  3601  06C1  0828               	movf	___xxtofl@sign,w
  3602  06C2  1903               	btfsc	3,2
  3603  06C3  2EC5               	goto	u2641
  3604  06C4  2EC6               	goto	u2640
  3605  06C5                     u2641:
  3606  06C5  2ECB               	goto	l1851
  3607  06C6                     u2640:
  3608  06C6                     l1847:
  3609  06C6  1FA3               	btfss	___xxtofl@val+3,7
  3610  06C7  2EC9               	goto	u2651
  3611  06C8  2ECA               	goto	u2650
  3612  06C9                     u2651:
  3613  06C9  2ECB               	goto	l1851
  3614  06CA                     u2650:
  3615  06CA                     l1849:
  3616  06CA  17AD               	bsf	___xxtofl@arg+3,7
  3617  06CB                     l1851:
  3618  06CB  082D               	movf	___xxtofl@arg+3,w
  3619  06CC  00A3               	movwf	?___xxtofl+3
  3620  06CD  082C               	movf	___xxtofl@arg+2,w
  3621  06CE  00A2               	movwf	?___xxtofl+2
  3622  06CF  082B               	movf	___xxtofl@arg+1,w
  3623  06D0  00A1               	movwf	?___xxtofl+1
  3624  06D1  082A               	movf	___xxtofl@arg,w
  3625  06D2  00A0               	movwf	?___xxtofl
  3626  06D3                     l600:
  3627  06D3  0008               	return
  3628  06D4                     __end_of___xxtofl:
  3629                           
  3630                           	psect	text9
  3631  0F84                     __ptext9:	
  3632 ;; *************** function ___fltol *****************
  3633 ;; Defined at:
  3634 ;;		line 43 in file "C:\Program Files\Microchip\xc8\v2.32\pic\sources\c90\common\fltol.c"
  3635 ;; Parameters:    Size  Location     Type
  3636 ;;  f1              4   59[BANK0 ] unsigned char 
  3637 ;; Auto vars:     Size  Location     Type
  3638 ;;  exp1            1   69[BANK0 ] unsigned char 
  3639 ;;  sign1           1   68[BANK0 ] unsigned char 
  3640 ;; Return value:  Size  Location     Type
  3641 ;;                  4   59[BANK0 ] long 
  3642 ;; Registers used:
  3643 ;;		wreg, status,2, status,0
  3644 ;; Tracked objects:
  3645 ;;		On entry : 0/0
  3646 ;;		On exit  : 0/0
  3647 ;;		Unchanged: 0/0
  3648 ;; Data sizes:     COMMON   BANK0   BANK1   BANK3   BANK2
  3649 ;;      Params:         0       4       0       0       0
  3650 ;;      Locals:         0       2       0       0       0
  3651 ;;      Temps:          0       5       0       0       0
  3652 ;;      Totals:         0      11       0       0       0
  3653 ;;Total ram usage:       11 bytes
  3654 ;; Hardware stack levels used: 1
  3655 ;; Hardware stack levels required when called: 1
  3656 ;; This function calls:
  3657 ;;		Nothing
  3658 ;; This function is called by:
  3659 ;;		_main
  3660 ;; This function uses a non-reentrant model
  3661 ;;
  3662                           
  3663                           
  3664                           ;psect for function ___fltol
  3665  0F84                     ___fltol:
  3666  0F84                     l1775:	
  3667                           ;incstack = 0
  3668                           ; Regs used in ___fltol: [wreg+status,2+status,0]
  3669                           
  3670  0F84  1003               	clrc
  3671  0F85  1283               	bcf	3,5	;RP0=0, select bank0
  3672  0F86  1303               	bcf	3,6	;RP1=0, select bank0
  3673  0F87  0D5D               	rlf	___fltol@f1+2,w
  3674  0F88  0D5E               	rlf	___fltol@f1+3,w
  3675  0F89  00DF               	movwf	??___fltol
  3676  0F8A  085F               	movf	??___fltol,w
  3677  0F8B  00E5               	movwf	___fltol@exp1
  3678  0F8C  0865               	movf	___fltol@exp1,w
  3679  0F8D  1D03               	btfss	3,2
  3680  0F8E  2F90               	goto	u2421
  3681  0F8F  2F91               	goto	u2420
  3682  0F90                     u2421:
  3683  0F90  2F9A               	goto	l1781
  3684  0F91                     u2420:
  3685  0F91                     l1777:
  3686  0F91  3000               	movlw	0
  3687  0F92  00DE               	movwf	?___fltol+3
  3688  0F93  3000               	movlw	0
  3689  0F94  00DD               	movwf	?___fltol+2
  3690  0F95  3000               	movlw	0
  3691  0F96  00DC               	movwf	?___fltol+1
  3692  0F97  3000               	movlw	0
  3693  0F98  00DB               	movwf	?___fltol
  3694  0F99  2FFF               	goto	l351
  3695  0F9A                     l1781:
  3696  0F9A  085B               	movf	___fltol@f1,w
  3697  0F9B  00DF               	movwf	??___fltol
  3698  0F9C  085C               	movf	___fltol@f1+1,w
  3699  0F9D  00E0               	movwf	??___fltol+1
  3700  0F9E  085D               	movf	___fltol@f1+2,w
  3701  0F9F  00E1               	movwf	??___fltol+2
  3702  0FA0  085E               	movf	___fltol@f1+3,w
  3703  0FA1  00E2               	movwf	??___fltol+3
  3704  0FA2  301F               	movlw	31
  3705  0FA3                     u2435:
  3706  0FA3  1003               	clrc
  3707  0FA4  0CE2               	rrf	??___fltol+3,f
  3708  0FA5  0CE1               	rrf	??___fltol+2,f
  3709  0FA6  0CE0               	rrf	??___fltol+1,f
  3710  0FA7  0CDF               	rrf	??___fltol,f
  3711  0FA8                     u2430:
  3712  0FA8  3EFF               	addlw	-1
  3713  0FA9  1D03               	skipz
  3714  0FAA  2FA3               	goto	u2435
  3715  0FAB  085F               	movf	??___fltol,w
  3716  0FAC  00E3               	movwf	??___fltol+4
  3717  0FAD  0863               	movf	??___fltol+4,w
  3718  0FAE  00E4               	movwf	___fltol@sign1
  3719  0FAF                     l1783:
  3720  0FAF  17DD               	bsf	___fltol@f1+2,7
  3721  0FB0                     l1785:
  3722  0FB0  30FF               	movlw	255
  3723  0FB1  05DB               	andwf	___fltol@f1,f
  3724  0FB2  30FF               	movlw	255
  3725  0FB3  05DC               	andwf	___fltol@f1+1,f
  3726  0FB4  30FF               	movlw	255
  3727  0FB5  05DD               	andwf	___fltol@f1+2,f
  3728  0FB6  3000               	movlw	0
  3729  0FB7  05DE               	andwf	___fltol@f1+3,f
  3730  0FB8                     l1787:
  3731  0FB8  3096               	movlw	150
  3732  0FB9  02E5               	subwf	___fltol@exp1,f
  3733  0FBA                     l1789:
  3734  0FBA  1FE5               	btfss	___fltol@exp1,7
  3735  0FBB  2FBD               	goto	u2441
  3736  0FBC  2FBE               	goto	u2440
  3737  0FBD                     u2441:
  3738  0FBD  2FD8               	goto	l1799
  3739  0FBE                     u2440:
  3740  0FBE                     l1791:
  3741  0FBE  0865               	movf	___fltol@exp1,w
  3742  0FBF  3A80               	xorlw	128
  3743  0FC0  3E97               	addlw	151
  3744  0FC1  1803               	skipnc
  3745  0FC2  2FC4               	goto	u2451
  3746  0FC3  2FC5               	goto	u2450
  3747  0FC4                     u2451:
  3748  0FC4  2FC6               	goto	l1797
  3749  0FC5                     u2450:
  3750  0FC5  2F91               	goto	l1777
  3751  0FC6                     l1797:
  3752  0FC6  3001               	movlw	1
  3753  0FC7                     u2465:
  3754  0FC7  1003               	clrc
  3755  0FC8  0CDE               	rrf	___fltol@f1+3,f
  3756  0FC9  0CDD               	rrf	___fltol@f1+2,f
  3757  0FCA  0CDC               	rrf	___fltol@f1+1,f
  3758  0FCB  0CDB               	rrf	___fltol@f1,f
  3759  0FCC  3EFF               	addlw	-1
  3760  0FCD  1D03               	skipz
  3761  0FCE  2FC7               	goto	u2465
  3762  0FCF  3001               	movlw	1
  3763  0FD0  00DF               	movwf	??___fltol
  3764  0FD1  085F               	movf	??___fltol,w
  3765  0FD2  07E5               	addwf	___fltol@exp1,f
  3766  0FD3  1D03               	btfss	3,2
  3767  0FD4  2FD6               	goto	u2471
  3768  0FD5  2FD7               	goto	u2470
  3769  0FD6                     u2471:
  3770  0FD6  2FC6               	goto	l1797
  3771  0FD7                     u2470:
  3772  0FD7  2FEF               	goto	l1807
  3773  0FD8                     l1799:
  3774  0FD8  3020               	movlw	32
  3775  0FD9  0265               	subwf	___fltol@exp1,w
  3776  0FDA  1C03               	skipc
  3777  0FDB  2FDD               	goto	u2481
  3778  0FDC  2FDE               	goto	u2480
  3779  0FDD                     u2481:
  3780  0FDD  2FEA               	goto	l358
  3781  0FDE                     u2480:
  3782  0FDE  2F91               	goto	l1777
  3783  0FDF                     l1805:
  3784  0FDF  3001               	movlw	1
  3785  0FE0  00DF               	movwf	??___fltol
  3786  0FE1                     u2495:
  3787  0FE1  1003               	clrc
  3788  0FE2  0DDB               	rlf	___fltol@f1,f
  3789  0FE3  0DDC               	rlf	___fltol@f1+1,f
  3790  0FE4  0DDD               	rlf	___fltol@f1+2,f
  3791  0FE5  0DDE               	rlf	___fltol@f1+3,f
  3792  0FE6  0BDF               	decfsz	??___fltol,f
  3793  0FE7  2FE1               	goto	u2495
  3794  0FE8  3001               	movlw	1
  3795  0FE9  02E5               	subwf	___fltol@exp1,f
  3796  0FEA                     l358:
  3797  0FEA  0865               	movf	___fltol@exp1,w
  3798  0FEB  1D03               	btfss	3,2
  3799  0FEC  2FEE               	goto	u2501
  3800  0FED  2FEF               	goto	u2500
  3801  0FEE                     u2501:
  3802  0FEE  2FDF               	goto	l1805
  3803  0FEF                     u2500:
  3804  0FEF                     l1807:
  3805  0FEF  0864               	movf	___fltol@sign1,w
  3806  0FF0  1903               	btfsc	3,2
  3807  0FF1  2FF3               	goto	u2511
  3808  0FF2  2FF4               	goto	u2510
  3809  0FF3                     u2511:
  3810  0FF3  2FFF               	goto	l361
  3811  0FF4                     u2510:
  3812  0FF4                     l1809:
  3813  0FF4  09DB               	comf	___fltol@f1,f
  3814  0FF5  09DC               	comf	___fltol@f1+1,f
  3815  0FF6  09DD               	comf	___fltol@f1+2,f
  3816  0FF7  09DE               	comf	___fltol@f1+3,f
  3817  0FF8  0ADB               	incf	___fltol@f1,f
  3818  0FF9  1903               	skipnz
  3819  0FFA  0ADC               	incf	___fltol@f1+1,f
  3820  0FFB  1903               	skipnz
  3821  0FFC  0ADD               	incf	___fltol@f1+2,f
  3822  0FFD  1903               	skipnz
  3823  0FFE  0ADE               	incf	___fltol@f1+3,f
  3824  0FFF                     l361:
  3825  0FFF                     l351:
  3826  0FFF  0008               	return
  3827  1000                     __end_of___fltol:
  3828                           
  3829                           	psect	text10
  3830  06D4                     __ptext10:	
  3831 ;; *************** function _TrataInt *****************
  3832 ;; Defined at:
  3833 ;;		line 56 in file "main.c"
  3834 ;; Parameters:    Size  Location     Type
  3835 ;;		None
  3836 ;; Auto vars:     Size  Location     Type
  3837 ;;		None
  3838 ;; Return value:  Size  Location     Type
  3839 ;;                  1    wreg      void 
  3840 ;; Registers used:
  3841 ;;		wreg, fsr0l, fsr0h, status,2, status,0
  3842 ;; Tracked objects:
  3843 ;;		On entry : 0/0
  3844 ;;		On exit  : 0/0
  3845 ;;		Unchanged: 0/0
  3846 ;; Data sizes:     COMMON   BANK0   BANK1   BANK3   BANK2
  3847 ;;      Params:         0       0       0       0       0
  3848 ;;      Locals:         4       0       0       0       0
  3849 ;;      Temps:          5       0       0       0       0
  3850 ;;      Totals:         9       0       0       0       0
  3851 ;;Total ram usage:        9 bytes
  3852 ;; Hardware stack levels used: 1
  3853 ;; This function calls:
  3854 ;;		Nothing
  3855 ;; This function is called by:
  3856 ;;		Interrupt level 1
  3857 ;; This function uses a non-reentrant model
  3858 ;;
  3859                           
  3860                           
  3861                           ;psect for function _TrataInt
  3862  06D4                     _TrataInt:
  3863  06D4                     i1l1855:
  3864                           
  3865                           ;main.c: 57: 
  3866  06D4  1283               	bcf	3,5	;RP0=0, select bank0
  3867  06D5  1303               	bcf	3,6	;RP1=0, select bank0
  3868  06D6  1C0C               	btfss	12,0	;volatile
  3869  06D7  2ED9               	goto	u266_21
  3870  06D8  2EDA               	goto	u266_20
  3871  06D9                     u266_21:
  3872  06D9  2F51               	goto	i1l71
  3873  06DA                     u266_20:
  3874  06DA                     i1l1857:
  3875                           
  3876                           ;main.c: 58: ;main.c: 59:             case 2:
  3877  06DA  100C               	bcf	12,0	;volatile
  3878  06DB                     i1l1859:
  3879                           
  3880                           ;main.c: 60:                 PORTBbits.RB2 = 1;
  3881  06DB  308F               	movlw	143
  3882  06DC  008E               	movwf	14	;volatile
  3883                           
  3884                           ;main.c: 61:                 PORTBbits.RB4 = 1;
  3885  06DD  30FD               	movlw	253
  3886  06DE  008F               	movwf	15	;volatile
  3887                           
  3888                           ;main.c: 63: 
  3889  06DF  3001               	movlw	1
  3890  06E0  07F9               	addwf	_indice,f
  3891  06E1  1803               	skipnc
  3892  06E2  0AFA               	incf	_indice+1,f
  3893  06E3  3000               	movlw	0
  3894  06E4  07FA               	addwf	_indice+1,f
  3895                           
  3896                           ;main.c: 65:                 break;
  3897  06E5  2F41               	goto	i1l1891
  3898  06E6                     i1l55:	
  3899                           ;main.c: 66: ;main.c: 68:                 indice = 0;
  3900                           
  3901                           
  3902                           ;main.c: 69:                 PORTBbits.RB2 = 1;
  3903  06E6  1586               	bsf	6,3	;volatile
  3904                           
  3905                           ;main.c: 70:                 PORTBbits.RB3 = 1;
  3906  06E7  1606               	bsf	6,4	;volatile
  3907                           
  3908                           ;main.c: 71:                 PORTBbits.RB4 = 0;
  3909  06E8  1106               	bcf	6,2	;volatile
  3910                           
  3911                           ;main.c: 73:                 if (digits[2] < 0 || digits[1] < 0)
  3912  06E9  1BEF               	btfsc	_digits+5,7
  3913  06EA  2EEC               	goto	u267_21
  3914  06EB  2EED               	goto	u267_20
  3915  06EC                     u267_21:
  3916  06EC  2EF2               	goto	i1l1863
  3917  06ED                     u267_20:
  3918  06ED                     i1l1861:
  3919  06ED  086F               	movf	_digits+5,w
  3920  06EE  00F6               	movwf	_TrataInt$268+1
  3921  06EF  086E               	movf	_digits+4,w
  3922  06F0  00F5               	movwf	_TrataInt$268
  3923  06F1  2EFD               	goto	i1l1865
  3924  06F2                     i1l1863:
  3925  06F2  096E               	comf	_digits+4,w
  3926  06F3  00F0               	movwf	??_TrataInt
  3927  06F4  096F               	comf	_digits+5,w
  3928  06F5  00F1               	movwf	??_TrataInt+1
  3929  06F6  0AF0               	incf	??_TrataInt,f
  3930  06F7  1903               	skipnz
  3931  06F8  0AF1               	incf	??_TrataInt+1,f
  3932  06F9  0870               	movf	??_TrataInt,w
  3933  06FA  00F5               	movwf	_TrataInt$268
  3934  06FB  0871               	movf	??_TrataInt+1,w
  3935  06FC  00F6               	movwf	_TrataInt$268+1
  3936  06FD                     i1l1865:
  3937  06FD  0875               	movf	_TrataInt$268,w
  3938  06FE  3EA0               	addlw	(low (_TABELA| 0))& (0+255)
  3939  06FF  0084               	movwf	4
  3940  0700  1383               	bcf	3,7	;select IRP bank1
  3941  0701  0800               	movf	0,w
  3942  0702  0088               	movwf	8	;volatile
  3943                           
  3944                           ;main.c: 74:                     PORTD = TABELA[10];
  3945  0703  2F51               	goto	i1l71
  3946  0704                     i1l61:	
  3947                           ;main.c: 77: 
  3948                           
  3949                           
  3950                           ;main.c: 78:                 break;
  3951  0704  1506               	bsf	6,2	;volatile
  3952                           
  3953                           ;main.c: 79:         }
  3954  0705  1606               	bsf	6,4	;volatile
  3955                           
  3956                           ;main.c: 80:     }
  3957  0706  1186               	bcf	6,3	;volatile
  3958                           
  3959                           ;main.c: 82: }
  3960  0707  1BED               	btfsc	_digits+3,7
  3961  0708  2F0A               	goto	u268_21
  3962  0709  2F0B               	goto	u268_20
  3963  070A                     u268_21:
  3964  070A  2F10               	goto	i1l1869
  3965  070B                     u268_20:
  3966  070B                     i1l1867:
  3967  070B  086D               	movf	_digits+3,w
  3968  070C  00F8               	movwf	_TrataInt$269+1
  3969  070D  086C               	movf	_digits+2,w
  3970  070E  00F7               	movwf	_TrataInt$269
  3971  070F  2F1B               	goto	i1l1871
  3972  0710                     i1l1869:
  3973  0710  096C               	comf	_digits+2,w
  3974  0711  00F0               	movwf	??_TrataInt
  3975  0712  096D               	comf	_digits+3,w
  3976  0713  00F1               	movwf	??_TrataInt+1
  3977  0714  0AF0               	incf	??_TrataInt,f
  3978  0715  1903               	skipnz
  3979  0716  0AF1               	incf	??_TrataInt+1,f
  3980  0717  0870               	movf	??_TrataInt,w
  3981  0718  00F7               	movwf	_TrataInt$269
  3982  0719  0871               	movf	??_TrataInt+1,w
  3983  071A  00F8               	movwf	_TrataInt$269+1
  3984  071B                     i1l1871:
  3985  071B  0877               	movf	_TrataInt$269,w
  3986  071C  3EA0               	addlw	(low (_TABELA| 0))& (0+255)
  3987  071D  0084               	movwf	4
  3988  071E  1383               	bcf	3,7	;select IRP bank1
  3989  071F  0800               	movf	0,w
  3990  0720  0088               	movwf	8	;volatile
  3991                           
  3992                           ;main.c: 83: 
  3993  0721  2F51               	goto	i1l71
  3994  0722                     i1l1873:
  3995                           
  3996                           ;main.c: 86: 
  3997  0722  01F9               	clrf	_indice
  3998  0723  01FA               	clrf	_indice+1
  3999  0724                     i1l1875:
  4000                           
  4001                           ;main.c: 87:     TRISB = 0b00100000;
  4002  0724  1506               	bsf	6,2	;volatile
  4003  0725                     i1l1877:
  4004                           
  4005                           ;main.c: 88:     TRISD = 0b00000000;
  4006  0725  1586               	bsf	6,3	;volatile
  4007  0726                     i1l1879:
  4008                           
  4009                           ;main.c: 89:     INTCONbits.GIE = 1;
  4010  0726  1206               	bcf	6,4	;volatile
  4011  0727                     i1l1881:
  4012                           
  4013                           ;main.c: 91:     PIE1bits.TMR1IE = 1;
  4014  0727  1BEF               	btfsc	_digits+5,7
  4015  0728  2F2A               	goto	u269_21
  4016  0729  2F2B               	goto	u269_20
  4017  072A                     u269_21:
  4018  072A  2F34               	goto	i1l1885
  4019  072B                     u269_20:
  4020  072B                     i1l1883:
  4021  072B  3002               	movlw	2
  4022  072C  3E6A               	addlw	(low (_digits| 0))& (0+255)
  4023  072D  0084               	movwf	4
  4024  072E  0A84               	incf	4,f
  4025  072F  1383               	bcf	3,7	;select IRP bank0
  4026  0730  1F80               	btfss	0,7
  4027  0731  2F33               	goto	u270_21
  4028  0732  2F34               	goto	u270_20
  4029  0733                     u270_21:
  4030  0733  2F3B               	goto	i1l1887
  4031  0734                     u270_20:
  4032  0734                     i1l1885:
  4033                           
  4034                           ;main.c: 92: 
  4035  0734  1683               	bsf	3,5	;RP0=1, select bank1
  4036  0735  1303               	bcf	3,6	;RP1=0, select bank1
  4037  0736  082A               	movf	(_TABELA^(0+128)+10),w
  4038  0737  1283               	bcf	3,5	;RP0=0, select bank0
  4039  0738  1303               	bcf	3,6	;RP1=0, select bank0
  4040  0739  0088               	movwf	8	;volatile
  4041  073A  2F51               	goto	i1l71
  4042  073B                     i1l1887:
  4043                           
  4044                           ;main.c: 94:     T1CONbits.TMR1ON = 0;
  4045  073B  086A               	movf	_digits,w
  4046  073C  3EA0               	addlw	(low (_TABELA| 0))& (0+255)
  4047  073D  0084               	movwf	4
  4048  073E  0800               	movf	0,w
  4049  073F  0088               	movwf	8	;volatile
  4050  0740  2F51               	goto	i1l71
  4051  0741                     i1l1891:
  4052                           
  4053                           ; Switch on 2 bytes has been partitioned into a top level switch of size 1, and 1 sub-sw
      +                          itches
  4054                           ; Switch size 1, requested type "simple"
  4055                           ; Number of cases is 1, Range of values is 0 to 0
  4056                           ; switch strategies available:
  4057                           ; Name         Instructions Cycles
  4058                           ; simple_byte            4     3 (average)
  4059                           ; direct_byte           11     8 (fixed)
  4060                           ; jumptable            260     6 (fixed)
  4061                           ;	Chosen strategy is simple_byte
  4062  0741  087A               	movf	_indice+1,w
  4063  0742  3A00               	xorlw	0	; case 0
  4064  0743  1903               	skipnz
  4065  0744  2F46               	goto	i1l1983
  4066  0745  2F51               	goto	i1l71
  4067  0746                     i1l1983:
  4068                           
  4069                           ; Switch size 1, requested type "simple"
  4070                           ; Number of cases is 3, Range of values is 1 to 3
  4071                           ; switch strategies available:
  4072                           ; Name         Instructions Cycles
  4073                           ; simple_byte           10     6 (average)
  4074                           ; direct_byte           20    11 (fixed)
  4075                           ; jumptable            263     9 (fixed)
  4076                           ;	Chosen strategy is simple_byte
  4077  0746  0879               	movf	_indice,w
  4078  0747  3A01               	xorlw	1	; case 1
  4079  0748  1903               	skipnz
  4080  0749  2EE6               	goto	i1l55
  4081  074A  3A03               	xorlw	3	; case 2
  4082  074B  1903               	skipnz
  4083  074C  2F04               	goto	i1l61
  4084  074D  3A01               	xorlw	1	; case 3
  4085  074E  1903               	skipnz
  4086  074F  2F22               	goto	i1l1873
  4087  0750  2F51               	goto	i1l71
  4088  0751                     i1l71:
  4089  0751  0874               	movf	??_TrataInt+4,w
  4090  0752  008A               	movwf	10
  4091  0753  0873               	movf	??_TrataInt+3,w
  4092  0754  0084               	movwf	4
  4093  0755  0E72               	swapf	??_TrataInt+2,w
  4094  0756  0083               	movwf	3
  4095  0757  0EFE               	swapf	btemp,f
  4096  0758  0E7E               	swapf	btemp,w
  4097  0759  0009               	retfie
  4098  075A                     __end_of_TrataInt:
  4099  007E                     btemp	set	126	;btemp
  4100  007E                     wtemp0	set	126
  4101                           
  4102                           	psect	intentry
  4103  0004                     __pintentry:	
  4104                           ;incstack = 0
  4105                           ; Regs used in _TrataInt: [wreg-fsr0h+status,2+status,0]
  4106                           
  4107  0004                     interrupt_function:
  4108  007E                     saved_w	set	btemp
  4109  0004  00FE               	movwf	btemp
  4110  0005  0E03               	swapf	3,w
  4111  0006  00F2               	movwf	??_TrataInt+2
  4112  0007  0804               	movf	4,w
  4113  0008  00F3               	movwf	??_TrataInt+3
  4114  0009  080A               	movf	10,w
  4115  000A  00F4               	movwf	??_TrataInt+4
  4116  000B  120A  118A  2ED4   	ljmp	_TrataInt
  4117                           
  4118                           	psect	config
  4119                           
  4120                           ;Config register CONFIG @ 0x2007
  4121                           ;	Oscillator Selection bits
  4122                           ;	FOSC = HS, HS oscillator
  4123                           ;	Watchdog Timer Enable bit
  4124                           ;	WDTE = OFF, WDT disabled
  4125                           ;	Power-up Timer Enable bit
  4126                           ;	PWRTE = ON, PWRT enabled
  4127                           ;	Brown-out Reset Enable bit
  4128                           ;	BOREN = ON, BOR enabled
  4129                           ;	Low-Voltage (Single-Supply) In-Circuit Serial Programming Enable bit
  4130                           ;	LVP = 0x1, unprogrammed default
  4131                           ;	Data EEPROM Memory Code Protection bit
  4132                           ;	CPD = 0x1, unprogrammed default
  4133                           ;	Flash Program Memory Write Enable bits
  4134                           ;	WRT = 0x3, unprogrammed default
  4135                           ;	In-Circuit Debugger Mode bit
  4136                           ;	DEBUG = 0x1, unprogrammed default
  4137                           ;	Flash Program Memory Code Protection bit
  4138                           ;	CP = 0x1, unprogrammed default
  4139  2007                     	org	8199
  4140  2007  3FF2               	dw	16370

Data Sizes:
    Strings     0
    Constant    0
    Data        11
    BSS         12
    Persistent  0
    Stack       0

Auto Spaces:
    Space          Size  Autos    Used
    COMMON           14      9      13
    BANK0            80     72      80
    BANK1            80      0      11
    BANK3            96      0       0
    BANK2            96      0       0

Pointer List with Targets:

    separateDigits@result	PTR int  size(1) Largest target is 6
		 -> digits(BANK0[6]), 


Critical Paths under _main in COMMON

    None.

Critical Paths under _TrataInt in COMMON

    None.

Critical Paths under _main in BANK0

    _main->___fltol
    _separateDigits->___awdiv
    _mapToCelsius->___fladd
    ___flmul->__Umul8_16
    ___fladd->___flmul
    ___fltol->_mapToCelsius

Critical Paths under _TrataInt in BANK0

    None.

Critical Paths under _main in BANK1

    None.

Critical Paths under _TrataInt in BANK1

    None.

Critical Paths under _main in BANK3

    None.

Critical Paths under _TrataInt in BANK3

    None.

Critical Paths under _main in BANK2

    None.

Critical Paths under _TrataInt in BANK2

    None.

Call Graph Tables:

 ---------------------------------------------------------------------------------
 (Depth) Function   	        Calls       Base Space   Used Autos Params    Refs
 ---------------------------------------------------------------------------------
 (0) _main                                                 2     2      0    6690
                                             70 BANK0      2     2      0
                            ___fltol
                           ___xxtofl
                       _mapToCelsius
                     _separateDigits
 ---------------------------------------------------------------------------------
 (1) _separateDigits                                       9     6      3    1210
                                              9 BANK0      9     6      3
                            ___awdiv
                            ___awmod
 ---------------------------------------------------------------------------------
 (2) ___awmod                                              7     3      4     448
                                              0 BANK0      7     3      4
 ---------------------------------------------------------------------------------
 (2) ___awdiv                                              9     5      4     452
                                              0 BANK0      9     5      4
 ---------------------------------------------------------------------------------
 (1) _mapToCelsius                                         4     0      4    4777
                                             55 BANK0      4     0      4
                            ___fladd
                            ___flmul
                           ___xxtofl (ARG)
 ---------------------------------------------------------------------------------
 (2) ___flmul                                             26    18      8    2417
                                              9 BANK0     26    18      8
                          __Umul8_16
 ---------------------------------------------------------------------------------
 (3) __Umul8_16                                            9     7      2     799
                                              0 BANK0      9     7      2
 ---------------------------------------------------------------------------------
 (2) ___fladd                                             20    12      8    2262
                                             35 BANK0     20    12      8
                            ___flmul (ARG)
 ---------------------------------------------------------------------------------
 (1) ___xxtofl                                            14    10      4     398
                                              0 BANK0     14    10      4
 ---------------------------------------------------------------------------------
 (1) ___fltol                                             11     7      4     305
                                             59 BANK0     11     7      4
                           ___xxtofl (ARG)
                       _mapToCelsius (ARG)
 ---------------------------------------------------------------------------------
 Estimated maximum stack depth 3
 ---------------------------------------------------------------------------------
 (Depth) Function   	        Calls       Base Space   Used Autos Params    Refs
 ---------------------------------------------------------------------------------
 (4) _TrataInt                                             9     9      0      48
                                              0 COMMON     9     9      0
 ---------------------------------------------------------------------------------
 Estimated maximum stack depth 4
 ---------------------------------------------------------------------------------

 Call Graph Graphs:

 _main (ROOT)
   ___fltol
     ___xxtofl (ARG)
     _mapToCelsius (ARG)
       ___fladd
         ___flmul (ARG)
           __Umul8_16
       ___flmul
       ___xxtofl (ARG)
   ___xxtofl
   _mapToCelsius
   _separateDigits
     ___awdiv
     ___awmod

 _TrataInt (ROOT)

 Address spaces:
Name               Size   Autos  Total    Cost      Usage
BANK3               60      0       0       9        0.0%
BITBANK3            60      0       0       8        0.0%
SFR3                 0      0       0       4        0.0%
BITSFR3              0      0       0       4        0.0%
BANK2               60      0       0      11        0.0%
BITBANK2            60      0       0      10        0.0%
SFR2                 0      0       0       5        0.0%
BITSFR2              0      0       0       5        0.0%
BANK1               50      0       B       7       13.8%
BITBANK1            50      0       0       6        0.0%
SFR1                 0      0       0       2        0.0%
BITSFR1              0      0       0       2        0.0%
BANK0               50     48      50       5      100.0%
BITBANK0            50      0       0       4        0.0%
SFR0                 0      0       0       1        0.0%
BITSFR0              0      0       0       1        0.0%
COMMON               E      9       D       1       92.9%
BITCOMMON            E      0       0       0        0.0%
CODE                 0      0       0       0        0.0%
DATA                 0      0      68      12        0.0%
ABS                  0      0      68       3        0.0%
NULL                 0      0       0       0        0.0%
STACK                0      0       0       2        0.0%
EEDATA             100      0       0       0        0.0%


Microchip Technology PIC Macro Assembler V2.32 build 20210201212658 
Symbol Table                                                                                   Thu Sep 09 12:55:36 2021

                      pc 0002                       l43 0E7B                       l48 0EBF  
           ___awdiv@sign 0026                       fsr 0004            ?_mapToCelsius 0057  
    __Umul8_16@word_mpld 0026                      l331 0F1A                      l500 060B  
                    l501 0617                      l318 0F83                      l351 0FFF  
                    l600 06D3                      l361 0FFF                      l611 069D  
                    l612 06A9                      l604 0681                      l358 0FEA  
                    l462 049A                      l471 0617                      l464 0471  
                    l560 02FB                      l458 03F3                      l554 038F  
                    l483 0589                      l492 05E9                      l573 0E30  
                    l566 0383                      l479 0565                      l575 0E42  
                    l489 05AB                      l598 063C                      fsr0 0004  
                    indf 0000             ___awmod@sign 0026             ___flmul@aexp 003B  
           ___flmul@bexp 003C             ___flmul@sign 0036             ___flmul@temp 0041  
           ___flmul@prod 003D             ___fltol@exp1 0065                     l1401 0EE0  
                   l1331 0E26                     l1411 0EFF                     l1403 0EE7  
                   l1501 043D                     l1333 0E2A                     l1341 0F1B  
                   l1413 0F06                     l1405 0EEB                     l1511 0480  
                   l1503 043E                     l1431 03A2                     l1423 0390  
                   l1335 0E39                     l1327 0E1D                     l1351 0F2D  
                   l1343 0F1E                     l1407 0EEF                     l1415 0F0C  
                   l1601 05F3                     l1521 049E                     l1513 0484  
                   l1505 0455                     l1433 03A7                     l1441 03B7  
                   l1425 0397                     l1337 0E3E                     l1329 0E1F  
                   l1361 0F41                     l1353 0F32                     l1345 0F22  
                   l1417 0F11                     l1409 0EF9                     l1611 0607  
                   l1603 05FB                     l1531 04C7                     l1523 04A3  
                   l1515 0485                     l1507 0475                     l1451 03D1  
                   l1443 03BF                     l1435 03AC                     l1427 039D  
                   l1371 0F67                     l1363 0F48                     l1355 0F36  
                   l1347 0F27                     l1419 0F16                     l1613 0612  
                   l1605 0600                     l1541 04DB                     l1533 04CB  
                   l1517 048E                     l1509 047E                     l1461 03E8  
                   l1453 03D5                     l1445 03C4                     l1437 03B4  
                   l1429 03A1                     l1701 02B0                     l1621 003C  
                   l1381 0F7F                     l1373 0F68                     l1365 0F4C  
                   l1357 0F38                     l1349 0F29                     l1615 0616  
                   l1607 0601                     l1551 0543                     l1543 04E4  
                   l1535 04D4                     l1527 04AC                     l1519 0492  
                   l1471 0401                     l1463 03E9                     l1455 03D6  
                   l1447 03CA                     l1439 03B5                     l1711 02D5  
                   l1703 02BE                     l1631 0053                     l1623 0040  
                   l1375 0F6F                     l1367 0F50                     l1359 0F3E  
                   l1391 0ECC                     l1609 0605                     l1553 0548  
                   l1537 04D6                     l1529 04C3                     l1545 04E9  
                   l1481 0415                     l1473 0405                     l1457 03DB  
                   l1465 03EB                     l1449 03CB                     l1721 02F8  
                   l1705 02C7                     l1713 02DB                     l1641 006C  
                   l1633 0055                     l1625 0041                     l1617 002F  
                   l1369 0F61                     l1377 0F75                     l1393 0ECE  
                   l1385 0EC0                     l1811 061B                     l1571 0590  
                   l1563 057B                     l1547 04FF                     l1555 0557  
                   l1539 04DA                     l1491 0429                     l1483 0419  
                   l1475 0409                     l1467 03F9                     l1459 03E0  
                   l1731 0317                     l1715 02DF                     l1707 02CB  
                   l1651 0081                     l1643 006D                     l1635 005D  
                   l1627 0046                     l1619 0036                     l1379 0F7A  
                   l1395 0ED2                     l1387 0EC3                     l1805 0FDF  
                   l1813 0620                     l1581 059E                     l1573 0592  
                   l1565 0584                     l1557 056D                     l1549 053D  
                   l1493 042D                     l1485 041D                     l1477 040D  
                   l1469 03FD                     l1741 035D                     l1733 0330  
                   l1725 0300                     l1717 02E0                     l1709 02CC  
                   l1661 009C                     l1653 0089                     l1645 0072  
                   l1637 0062                     l1629 004B                     l1397 0ED7  
                   l1389 0EC7                     l1901 075E                     l1807 0FEF  
                   l1831 066A                     l1823 064D                     l1815 0624  
                   l1591 05B5                     l1583 05A2                     l1575 0597  
                   l1567 0588                     l1559 0572                     l1495 0431  
                   l1487 0421                     l1479 0411                     l1751 037C  
                   l1743 0367                     l1727 0305                     l1735 0336  
                   l1719 02E4                     l1671 011E                     l1663 00AC  
                   l1655 008E                     l1647 0077                     l1639 0068  
                   l1399 0EDD                     l1911 0765                     l1903 075F  
                   l1809 0FF4                     l1841 06A1                     l1833 0678  
                   l1825 0652                     l1817 0634                     l1593 05C3  
                   l1585 05A8                     l1569 058D                     l1577 0599  
                   l1497 0435                     l1489 0425                     l1753 0387  
                   l1745 0369                     l1737 0343                     l1729 0313  
                   l1681 018C                     l1673 013A                     l1665 00B9  
                   l1657 0093                     l1649 007F                     l1761 0E7C  
                   l1921 076C                     l1913 0766                     l1905 0760  
                   l1851 06CB                     l1843 06AB                     l1835 0688  
                   l1827 065F                     l1819 0644                     l1595 05C7  
                   l1579 059D                     l1499 0439                     l1747 0377  
                   l1739 034E                     l1691 021C                     l1683 019C  
                   l1675 0156                     l1667 00D6                     l1771 0EB5  
                   l1931 0773                     l1923 076D                     l1915 0767  
                   l1907 0761                     l1781 0F9A                     l1845 06C1  
                   l1837 0693                     l1829 0666                     l1597 05E5  
                   l1589 05B0                     l1749 037B                     l1693 022C  
                   l1685 01B9                     l1677 015F                     l1669 00F2  
                   l1757 0E43                     l1773 0EBB                     l1941 0784  
                   l1933 0776                     l1925 0770                     l1917 0768  
                   l1909 0762                     l1791 0FBE                     l1783 0FAF  
                   l1775 0F84                     l1847 06C6                     l1839 0697  
                   l1599 05EE                     l1695 0259                     l1687 01D2  
                   l1679 016F                     l1767 0E86                     l1951 07CD  
                   l1943 0787                     l1935 0777                     l1927 0771  
                   l1919 076A                     l1785 0FB0                     l1777 0F91  
                   l1849 06CA                     l1697 027F                     l1689 01EF  
                   l1769 0EA2                     l1945 0788                     l1937 077A  
                   l1929 0772                     l1787 0FB8                     l1699 02A7  
                   l1947 0789                     l1939 077D                     l1797 0FC6  
                   l1789 0FBA                     l1949 079A                     l1799 0FD8  
                   l1899 075A                     u2000 05F3                     u2001 05F2  
                   u2010 0600                     u2011 05FF                     u2020 0605  
                   u2100 008E                     u2021 0604                     u2101 008D  
                   u2030 0616                     u2110 0093                     u2031 0615  
                   u2111 0092                     u2040 0040                     u1400 0F2D  
                   u2201 01E1                     u2121 00E4                     u2041 003F  
                   u1401 0F2C                     u2202 01E8                     u2122 00EB  
                   u2050 0046                     u1410 0F3E                     u2211 020E  
                   u2203 01EF                     u2131 0100                     u2123 00F2  
                   u2051 0045                     u1411 0F3D                     u2212 0215  
                   u2132 0107                     u2060 004B                     u1500 0ED2  
                   u2221 023B                     u2213 021C                     u2141 012C  
                   u2133 010E                     u2061 004A                     u1501 0ED1  
                   u2310 02DF                     u2230 0265                     u2222 0242  
                   u2142 0133                     u2070 006C                     u1430 0F50  
                   u1510 0EDD                     u2311 02DE                     u2223 0249  
                   u2151 0148                     u2143 013A                     u2071 006B  
                   u1431 0F4F                     u1511 0EDC                     u1600 03AC  
                   u1360 0E2A                     u2400 037B                     u2320 02E4  
                   u2152 014F                     u2080 0072                     u1601 03AB  
                   u1361 0E29                     u2401 037A                     u2321 02E3  
                   u2305 02CE                     u2241 0271                     u2153 0156  
                   u2081 0071                     u1425 0F42                     u1610 03CA  
                   u2330 02F8                     u2250 028D                     u2242 0278  
                   u2090 0077                     u1450 0F61                     u1530 0EEF  
                   u2410 0EBF                     u1611 03C9                     u2331 02F7  
                   u2243 027F                     u2235 0260                     u2171 017E  
                   u2091 0076                     u1451 0F60                     u1531 0EEE  
                   u2411 0EBE                     u2500 0FEF                     u2420 0F91  
                   u1700 0475                     u1620 03D5                     u1380 0E3E  
                   u2340 02FF                     u2172 0185                     u1540 0EF9  
                   u2501 0FEE                     u2421 0F90                     u1701 0474  
                   u1621 03D4                     u1381 0E3D                     u2341 02FE  
                   u2261 0299                     u2181 01AB                     u2173 018C  
                   u2165 0158                     u1445 0F51                     u1541 0EF8  
                   u1525 0EE1                     u2510 0FF4                     u2430 0FA8  
                   u1710 0484                     u1630 03DB                     u2350 0305  
                   u2262 02A0                     u2182 01B2                     u1470 0F75  
                   u1390 0F22                     u2511 0FF3                     u1711 0483  
                   u1631 03DA                     u1375 0E31                     u2351 0304  
                   u2263 02A7                     u2255 0288                     u2183 01B9  
                   u1471 0F74                     u1455 0F5D                     u1391 0F21  
                   u2440 0FBE                     u2600 0697                     u2520 0620  
                   u1640 03E0                     u2360 0317                     u1480 0F7A  
                   u1560 0F0C                     u2441 0FBD                     u2601 0696  
                   u2521 061F                     u1641 03DF                     u2361 0316  
                   u1481 0F79                     u1465 0F69                     u1561 0F0B  
                   u1545 0EF5                     u2450 0FC5                     u2610 069D  
                   u2530 0624                     u1810 04FF                     u1730 049A  
                   u1650 03F9                     u2370 0326                     u2290 02CB  
                   u1570 0F11                     u1490 0EC7                     u2451 0FC4  
                   u2435 0FA3                     u2611 069C                     u2531 0623  
                   u1811 04FE                     u1731 0499                     u1651 03F8  
                   u2291 02CA                     u2275 02A9                     u2195 01BB  
                   u1571 0F10                     u1555 0F00                     u1491 0EC6  
                   u2620 06A1                     u2540 0644                     u1900 0597  
                   u1740 049E                     u1660 03FD                     u1580 03A1  
                   u2380 0343                     u2621 06A0                     u2541 0643  
                   u1901 0596                     u1821 0516                     u1813 04FB  
                   u1805 04DD                     u1741 049D                     u1725 0487  
                   u1661 03FC                     u1581 03A0                     u2381 0342  
                   u2285 02C0                     u2470 0FD7                     u2630 06B6  
                   u1910 059D                     u1830 052A                     u1822 0517  
                   u1750 04A3                     u1670 0455                     u1590 03A7  
                   u2390 035D                     u2471 0FD6                     u1911 059C  
                   u1831 052B                     u1823 051C                     u1751 04A2  
                   u1671 0454                     u1591 03A6                     u2391 035C  
                   u2375 0321                     u2480 0FDE                     u2640 06C6  
                   u2560 0665                     u1920 05A2                     u1840 0548  
                   u1832 0530                     u1824 051D                     u1680 0460  
                   u2481 0FDD                     u2465 0FC7                     u2641 06C5  
                   u2561 0664                     u1921 05A1                     u1841 0547  
                   u1833 0531                     u1825 0522                     u1761 04B5  
                   u1681 045E                     u2385 033F                     u2650 06CA  
                   u1930 05A8                     u1850 056D                     u1826 0523  
                   u1770 04C7                     u1762 04BC                     u1690 0461  
                   u2651 06C9                     u2635 06B1                     u2555 0657  
                   u1931 05A7                     u1851 056C                     u1771 04C6  
                   u1763 04C3                     u1675 0451                     u2395 0359  
                   u2580 0687                     u1940 05AF                     u1860 0572  
                   u1780 04CB                     u2581 0686                     u1941 05AE  
                   u1861 0571                     u1781 04CA                     u2717 078E  
                   u1950 05B5                     u1790 04DA                     u2495 0FE1  
                   u2575 0679                     u1951 05B4                     u1791 04D9  
                   u1960 05C7                     u1880 0588                     u1961 05C6  
                   u1881 0587                     u1970 05D6                     u1890 058D  
                   u2595 068C                     u1891 058C                     u1875 057D  
                   u1980 05E5                     u1981 05E4                     u1990 05EE  
                   u1991 05ED                     u1975 05D1                     i1l61 0704  
                   i1l55 06E6                     i1l71 0751                     _main 075A  
                   btemp 007E                     start 000E           ??_mapToCelsius 005B  
          ___fltol@sign1 0064          __end_of___fladd 0618                    ?_main 0070  
        __end_of___awdiv 0F84          __end_of___awmod 0F1B          __end_of___flmul 0390  
        __end_of___fltol 1000          ___awdiv@divisor 0020          ___awdiv@counter 0025  
                  _TMR1H 000F                    _TMR1L 000E                    _PORTD 0008  
                  _TRISB 0086                    _TRISD 0088                    _valor 0068  
                  pclath 000A                    status 0003                    wtemp0 007E  
   separateDigits@result 002B          __initialization 0011             __end_of_main 07DE  
                 ??_main 0066         __end_of_TrataInt 075A                   _ADRESH 001E  
       ___awdiv@dividend 0022                   i1l1861 06ED                   i1l1871 071B  
                 i1l1863 06F2                   i1l1855 06D4                   i1l1881 0727  
                 i1l1873 0722                   i1l1865 06FD                   i1l1857 06DA  
                 i1l1883 072B                   i1l1875 0724                   i1l1867 070B  
                 i1l1891 0741                   i1l1859 06DB                   i1l1885 0734  
                 i1l1877 0725                   i1l1869 0710                   i1l1983 0746  
                 i1l1887 073B                   i1l1879 0726                   _TABELA 00A0  
                 u270_20 0734                   u270_21 0733                   u266_20 06DA  
                 u266_21 06D9                   u267_20 06ED                   u267_21 06EC  
                 u268_20 070B                   u268_21 070A                   u269_20 072B  
                 u269_21 072A                   _TMR1IF 0060         __end_of___xxtofl 06D4  
__size_of_separateDigits 0044                ??___fladd 004B                ??___awdiv 0024  
              ??___awmod 0024                ??___flmul 0031                ??___fltol 005F  
                 _digits 006A                   _indice 0079         ___awdiv@quotient 0027  
        ___awmod@divisor 0020          ___awmod@counter 0025       __size_of__Umul8_16 0029  
                 saved_w 007E             ___xxtofl@arg 002A             ___xxtofl@exp 0029  
           ___xxtofl@val 0020     __end_of_mapToCelsius 0E7C  __end_of__initialization 002B  
             ___fltol@f1 005B           __pcstackCOMMON 0070             __pidataBANK1 07F1  
             __pbssBANK0 0068        __end_of__Umul8_16 0E43               __pmaintext 075A  
              ?_TrataInt 0070               __pintentry 0004                ?___xxtofl 0020  
      mapToCelsius@value 0057           _separateDigits 0E7C                  ___fladd 0390  
                ___awdiv 0F1B               ??_TrataInt 0070                  ___awmod 0EC0  
                ___flmul 002F                  ___fltol 0F84                  _celsius 007B  
                __ptext1 0E7C                  __ptext2 0EC0                  __ptext3 0F1B  
                __ptext4 0E43                  __ptext5 002F                  __ptext6 0E1A  
                __ptext7 0390                  __ptext8 0618                  __ptext9 0F84  
              _T1CONbits 0010               ??___xxtofl 0024         ___awmod@dividend 0022  
  __size_of_mapToCelsius 0039     end_of_initialization 002B   __end_of_separateDigits 0EC0  
           _mapToCelsius 0E43                _PORTBbits 0006              ___fladd@grs 0056  
          ___xxtofl@sign 0028              ___flmul@grs 0037          ?_separateDigits 0029  
    separateDigits@value 0029      start_initialization 0011               init_fetch0 07DE  
              __Umul8_16 0E1A              __pdataBANK1 00A0        __size_of_TrataInt 0086  
              ___fladd@a 0047                ___fladd@b 0043                ___flmul@a 002D  
              ___flmul@b 0029              __pbssCOMMON 0079                ___latbits 0002  
          __pcstackBANK0 0020        __size_of___xxtofl 00BC        separateDigits@num 002E  
        separateDigits@i 0030                 ?___fladd 0043                 ?___awdiv 0020  
               ?___awmod 0020                 ?___flmul 0029                 ?___fltol 005B  
             ?__Umul8_16 0020        interrupt_function 0004                 _PIE1bits 008C  
               _PIR1bits 000C               _ADCON0bits 001F               _ADCON1bits 009F  
       ??_separateDigits 002C                 _TrataInt 06D4              ??__Umul8_16 0022  
       __size_of___fladd 0288         __size_of___awdiv 0069         __size_of___awmod 005B  
       __size_of___flmul 0361         __size_of___fltol 007C                 ___xxtofl 0618  
               __ptext10 06D4            __size_of_main 0084               _INTCONbits 000B  
           _TrataInt$268 0075             _TrataInt$269 0077                 init_ram0 07E2  
               intlevel1 0000   __Umul8_16@multiplicand 0020            ___fladd@signs 0053  
           ___fladd@aexp 0054             ___fladd@bexp 0055     __Umul8_16@multiplier 0028  
      __Umul8_16@product 0024  
